(dp0
S'wb'
p1
(I866
I484
tp2
sS'guidelines'
p3
(I689
I111
tp4
sS'cctv'
p5
(I214
I78
tp6
sS'xinhua'
p7
(I926
I540
tp8
sS'consensus'
p9
(I200
I90
tp10
sS'proxy'
p11
(I8252
I3852
tp12
sS'mt09sdl'
p13
(I204
I140
tp14
sS'dfa'
p15
(I6894
I3963
tp16
sS'bolt'
p17
(I1327
I886
tp18
s.