(dp0
S'wb'
p1
(I484
I272
I130
tp2
sS'guidelines'
p3
(I111
I54
I42
tp4
sS'cctv'
p5
(I78
I34
I22
tp6
sS'xinhua'
p7
(I540
I187
I59
tp8
sS'consensus'
p9
(I90
I35
I26
tp10
sS'proxy'
p11
(I3852
I1201
I593
tp12
sS'mt09sdl'
p13
(I140
I81
I43
tp14
sS'dfa'
p15
(I3963
I2372
I1248
tp16
sS'bolt'
p17
(I886
I515
I208
tp18
s.