(dp0
S'wb'
p1
(I484
I237
I101
tp2
sS'guidelines'
p3
(I111
I46
I36
tp4
sS'cctv'
p5
(I78
I34
I22
tp6
sS'xinhua'
p7
(I540
I187
I59
tp8
sS'consensus'
p9
(I90
I33
I25
tp10
sS'proxy'
p11
(I3852
I1201
I593
tp12
sS'mt09sdl'
p13
(I140
I73
I38
tp14
sS'dfa'
p15
(I3963
I1803
I824
tp16
sS'bolt'
p17
(I886
I483
I188
tp18
s.