(lp0
ccopy_reg
_reconstructor
p1
(cTrainingDataExtractor
TrainingData
p2
c__builtin__
tuple
p3
(S"things for now , say after you 've done them ;"
p4
(lp5
(iamr_util.Actions
AMRAction
p6
(dp7
S'index'
p8
I0
sS'key2'
p9
NsS'label2'
p10
NsS'label'
p11
S'thing'
p12
sS'key'
p13
S't'
p14
sS'action'
p15
S'SH'
p16
sba(iamr_util.Actions
AMRAction
p17
(dp18
g8
I3
sg9
Nsg10
Nsg11
Nsg13
Nsg15
S'DN'
p19
sba(iamr_util.Actions
AMRAction
p20
(dp21
g8
I0
sg9
Nsg10
Nsg11
S'now'
p22
sg13
S'n'
p23
sg15
g16
sba(iamr_util.Actions
AMRAction
p24
(dp25
g8
I2
sg9
Nsg10
Nsg11
S'purpose'
p26
sg13
Nsg15
S'RR'
p27
sba(iamr_util.Actions
AMRAction
p28
(dp29
g8
I3
sg9
Nsg10
Nsg11
Nsg13
Nsg15
g19
sba(iamr_util.Actions
AMRAction
p30
(dp31
g8
I0
sg9
Nsg10
Nsg11
S'say-01'
p32
sg13
S's'
p33
sg15
g16
sba(iamr_util.Actions
AMRAction
p34
(dp35
g8
I1
sg9
Nsg10
Nsg11
S'ARG1'
p36
sg13
Nsg15
S'RL'
p37
sba(iamr_util.Actions
AMRAction
p38
(dp39
g8
I0
sg9
Nsg10
Nsg11
S'after'
p40
sg13
S'a'
p41
sg15
g16
sba(iamr_util.Actions
AMRAction
p42
(dp43
g8
I0
sg9
Nsg10
Nsg11
S'you'
p44
sg13
S'y2'
p45
sg15
g16
sba(iamr_util.Actions
AMRAction
p46
(dp47
g8
I3
sg9
Nsg10
Nsg11
Nsg13
Nsg15
g19
sba(iamr_util.Actions
AMRAction
p48
(dp49
g8
I0
sg9
Nsg10
Nsg11
S'do-02'
p50
sg13
S'd'
p51
sg15
g16
sba(iamr_util.Actions
AMRAction
p52
(dp53
g8
I1
sg9
Nsg10
Nsg11
S'ARG0'
p54
sg13
Nsg15
g37
sba(iamr_util.Actions
AMRAction
p55
(dp56
g8
I0
sg9
Nsg10
Nsg11
S'thing'
p57
sg13
S'COREF_t_0'
p58
sg15
g16
sba(iamr_util.Actions
AMRAction
p59
(dp60
g8
I2
sg9
Nsg10
Nsg11
S'ARG1'
p61
sg13
Nsg15
g27
sba(iamr_util.Actions
AMRAction
p62
(dp63
g8
I2
sg9
Nsg10
Nsg11
S'op1'
p64
sg13
Nsg15
g27
sba(iamr_util.Actions
AMRAction
p65
(dp66
g8
I2
sg9
Nsg10
Nsg11
S'time'
p67
sg13
Nsg15
g27
sba(iamr_util.Actions
AMRAction
p68
(dp69
g8
I3
sg9
Nsg10
Nsg11
Nsg13
Nsg15
g19
sbaS'(s / say-01~e.4 :mode imperative\n      :ARG0 (y / you~e.6)\n      :ARG1 (t / thing~e.0\n            :purpose~e.1 (n / now~e.2))\n      :time (a / after~e.5\n            :op1 (d / do-02~e.8\n                  :ARG0 (y2 / you~e.6)\n                  :ARG1 (COREF_t_0 / thing~e.9))))'
p70
(dp71
(lp72
(lp73
(dp74
I1
tp75
tp76
Rp77
ag1
(g2
g3
(S'Is the army rebuilding its force ?'
p78
(lp79
(iamr_util.Actions
AMRAction
p80
(dp81
g8
I3
sg9
Nsg10
Nsg11
Nsg13
Nsg15
g19
sba(iamr_util.Actions
AMRAction
p82
(dp83
g8
I3
sg9
Nsg10
Nsg11
Nsg13
Nsg15
g19
sba(iamr_util.Actions
AMRAction
p84
(dp85
g8
I0
sg9
Nsg10
Nsg11
S'army'
p86
sg13
g41
sg15
g16
sba(iamr_util.Actions
AMRAction
p87
(dp88
g8
I0
sg9
Nsg10
Nsg11
S'rebuild-01'
p89
sg13
S'r'
p90
sg15
g16
sba(iamr_util.Actions
AMRAction
p91
(dp92
g8
I1
sg9
Nsg10
Nsg11
S'ARG0'
p93
sg13
Nsg15
g37
sba(iamr_util.Actions
AMRAction
p94
(dp95
g8
I0
sg9
Nsg10
Nsg11
S'army'
p96
sg13
S'COREF_a_0'
p97
sg15
g16
sba(iamr_util.Actions
AMRAction
p98
(dp99
g8
I0
sg9
Nsg10
Nsg11
S'force'
p100
sg13
S'f'
p101
sg15
g16
sba(iamr_util.Actions
AMRAction
p102
(dp103
g8
I1
sg9
Nsg10
Nsg11
S'poss'
p104
sg13
Nsg15
g37
sba(iamr_util.Actions
AMRAction
p105
(dp106
g8
I2
sg9
Nsg10
Nsg11
S'ARG1'
p107
sg13
Nsg15
g27
sba(iamr_util.Actions
AMRAction
p108
(dp109
g8
I0
sg9
Nsg10
Nsg11
g1
(cutil
Interrogative
p110
c__builtin__
str
p111
S'interrogative'
p112
tp113
Rp114
sg13
g114
sg15
g16
sba(iamr_util.Actions
AMRAction
p115
(dp116
g8
I2
sg9
Nsg10
Nsg11
S'mode'
p117
sg13
Nsg15
g27
sbaS'(r / rebuild-01~e.3 :mode~e.6 interrogative~e.6\n      :ARG0 (a / army~e.2)\n      :ARG1 (f / force~e.5\n            :poss~e.4 (COREF_a_0 / army~e.4)))'
p118
(dp119
(lp120
(lp121
(dp122
I1
tp123
tp124
Rp125
a.