(lp0
ccopy_reg
_reconstructor
p1
(cTrainingDataExtractor
TrainingData
p2
c__builtin__
tuple
p3
(S'This dynamic metropolis never ceases its movement .'
p4
(lp5
(iamr_util.Actions
AMRAction
p6
(dp7
S'index'
p8
I0
sS'key2'
p9
NsS'label2'
p10
NsS'label'
p11
S'this'
p12
sS'key'
p13
S't'
p14
sS'action'
p15
S'SH'
p16
sba(iamr_util.Actions
AMRAction
p17
(dp18
g8
I0
sg9
Nsg10
Nsg11
S'dynamic'
p19
sg13
S'd'
p20
sg15
g16
sba(iamr_util.Actions
AMRAction
p21
(dp22
g8
I0
sg9
Nsg10
Nsg11
S'metropolis'
p23
sg13
S'm'
p24
sg15
g16
sba(iamr_util.Actions
AMRAction
p25
(dp26
g8
I1
sg9
Nsg10
Nsg11
S'mod'
p27
sg13
Nsg15
S'RL'
p28
sba(iamr_util.Actions
AMRAction
p29
(dp30
g8
I1
sg9
Nsg10
Nsg11
g27
sg13
Nsg15
g28
sba(iamr_util.Actions
AMRAction
p31
(dp32
g8
I0
sg9
Nsg10
Nsg11
S'ever'
p33
sg13
S'e2'
p34
sg15
g16
sba(iamr_util.Actions
AMRAction
p35
(dp36
g8
I0
sg9
Nsg10
Nsg11
S'cease-01'
p37
sg13
S'c'
p38
sg15
g16
sba(iamr_util.Actions
AMRAction
p39
(dp40
g8
I1
sg9
Nsg10
Nsg11
S'time'
p41
sg13
Nsg15
g28
sba(iamr_util.Actions
AMRAction
p42
(dp43
g8
I1
sg9
Nsg10
Nsg11
S'ARG0'
p44
sg13
Nsg15
g28
sba(iamr_util.Actions
AMRAction
p45
(dp46
g8
I0
sg9
Nsg10
Nsg11
S'metropolis'
p47
sg13
S'COREF_m_0'
p48
sg15
g16
sba(iamr_util.Actions
AMRAction
p49
(dp50
g8
I0
sg9
Nsg10
Nsg11
S'move-01'
p51
sg13
S'm2'
p52
sg15
g16
sba(iamr_util.Actions
AMRAction
p53
(dp54
g8
I1
sg9
Nsg10
Nsg11
S'ARG1'
p55
sg13
Nsg15
g28
sba(iamr_util.Actions
AMRAction
p56
(dp57
g8
I2
sg9
Nsg10
Nsg11
S'ARG1'
p58
sg13
Nsg15
S'RR'
p59
sba(iamr_util.Actions
AMRAction
p60
(dp61
g8
I3
sg9
Nsg10
Nsg11
Nsg13
Nsg15
S'DN'
p62
sbaS'(c / cease-01~e.4 :polarity~e.3 -~e.3\n      :ARG0 (m / metropolis~e.2\n            :mod (d / dynamic~e.1)\n            :mod (t / this~e.0))\n      :ARG1 (m2 / move-01~e.6\n            :ARG1~e.5 (COREF_m_0 / metropolis~e.5))\n      :time (e2 / ever~e.3))'
p63
(dp64
(lp65
(lp66
(dp67
I1
tp68
tp69
Rp70
ag1
(g2
g3
(S'The boy wants the girl to believe him .'
p71
(lp72
(iamr_util.Actions
AMRAction
p73
(dp74
g8
I3
sg9
Nsg10
Nsg11
Nsg13
Nsg15
g62
sba(iamr_util.Actions
AMRAction
p75
(dp76
g8
I0
sg9
Nsg10
Nsg11
S'boy'
p77
sg13
S'b'
p78
sg15
g16
sba(iamr_util.Actions
AMRAction
p79
(dp80
g8
I0
sg9
Nsg10
Nsg11
S'want-01'
p81
sg13
S'w'
p82
sg15
g16
sba(iamr_util.Actions
AMRAction
p83
(dp84
g8
I1
sg9
Nsg10
Nsg11
S'ARG0'
p85
sg13
Nsg15
g28
sba(iamr_util.Actions
AMRAction
p86
(dp87
g8
I3
sg9
Nsg10
Nsg11
Nsg13
Nsg15
g62
sba(iamr_util.Actions
AMRAction
p88
(dp89
g8
I0
sg9
Nsg10
Nsg11
S'girl'
p90
sg13
S'g'
p91
sg15
g16
sba(iamr_util.Actions
AMRAction
p92
(dp93
g8
I3
sg9
Nsg10
Nsg11
Nsg13
Nsg15
g62
sba(iamr_util.Actions
AMRAction
p94
(dp95
g8
I0
sg9
Nsg10
Nsg11
S'believe-01'
p96
sg13
S'b2'
p97
sg15
g16
sba(iamr_util.Actions
AMRAction
p98
(dp99
g8
I1
sg9
Nsg10
Nsg11
S'ARG0'
p100
sg13
Nsg15
g28
sba(iamr_util.Actions
AMRAction
p101
(dp102
g8
I0
sg9
Nsg10
Nsg11
S'boy'
p103
sg13
S'COREF_b_0'
p104
sg15
g16
sba(iamr_util.Actions
AMRAction
p105
(dp106
g8
I2
sg9
Nsg10
Nsg11
S'ARG1'
p107
sg13
Nsg15
g59
sba(iamr_util.Actions
AMRAction
p108
(dp109
g8
I2
sg9
Nsg10
Nsg11
S'ARG1'
p110
sg13
Nsg15
g59
sba(iamr_util.Actions
AMRAction
p111
(dp112
g8
I3
sg9
Nsg10
Nsg11
Nsg13
Nsg15
g62
sbaS'(w / want-01~e.2\n      :ARG0 (b / boy~e.1)\n      :ARG1 (b2 / believe-01~e.6\n            :ARG0 (g / girl~e.4)\n            :ARG1 (COREF_b_0 / boy~e.7)))'
p113
(dp114
(lp115
(lp116
(dp117
I1
tp118
tp119
Rp120
ag1
(g2
g3
(S'The boy saw the girl who wanted him .'
p121
(lp122
(iamr_util.Actions
AMRAction
p123
(dp124
g8
I3
sg9
Nsg10
Nsg11
Nsg13
Nsg15
g62
sba(iamr_util.Actions
AMRAction
p125
(dp126
g8
I0
sg9
Nsg10
Nsg11
S'boy'
p127
sg13
g78
sg15
g16
sba(iamr_util.Actions
AMRAction
p128
(dp129
g8
I0
sg9
Nsg10
Nsg11
S'see-01'
p130
sg13
S's'
p131
sg15
g16
sba(iamr_util.Actions
AMRAction
p132
(dp133
g8
I1
sg9
Nsg10
Nsg11
S'ARG0'
p134
sg13
Nsg15
g28
sba(iamr_util.Actions
AMRAction
p135
(dp136
g8
I3
sg9
Nsg10
Nsg11
Nsg13
Nsg15
g62
sba(iamr_util.Actions
AMRAction
p137
(dp138
g8
I0
sg9
Nsg10
Nsg11
S'girl'
p139
sg13
g91
sg15
g16
sba(iamr_util.Actions
AMRAction
p140
(dp141
g8
I3
sg9
Nsg10
Nsg11
Nsg13
Nsg15
g62
sba(iamr_util.Actions
AMRAction
p142
(dp143
g8
I0
sg9
Nsg10
Nsg11
S'want-01'
p144
sg13
g82
sg15
g16
sba(iamr_util.Actions
AMRAction
p145
(dp146
g8
I0
sg9
Nsg10
Nsg11
S'boy'
p147
sg13
S'COREF_b_0'
p148
sg15
g16
sba(iamr_util.Actions
AMRAction
p149
(dp150
g8
I2
sg9
Nsg10
Nsg11
S'ARG1'
p151
sg13
Nsg15
g59
sba(iamr_util.Actions
AMRAction
p152
(dp153
g8
I2
sg9
Nsg10
Nsg11
S'ARG0-of'
p154
sg13
Nsg15
g59
sba(iamr_util.Actions
AMRAction
p155
(dp156
g8
I2
sg9
Nsg10
Nsg11
S'ARG1'
p157
sg13
Nsg15
g59
sba(iamr_util.Actions
AMRAction
p158
(dp159
g8
I3
sg9
Nsg10
Nsg11
Nsg13
Nsg15
g62
sbaS'(s / see-01~e.2\n      :ARG0 (b / boy~e.1)\n      :ARG1 (g / girl~e.4\n            :ARG0-of (w / want-01~e.6\n                  :ARG1 (COREF_b_0 / boy~e.7))))'
p160
(dp161
(lp162
(lp163
(dp164
I1
tp165
tp166
Rp167
ag1
(g2
g3
(S'Darrell Phillips , vice president of human resources for Hollingworth & Vose'
p168
(lp169
(iamr_util.Actions
AMRAction
p170
(dp171
g8
I3
sg9
Nsg10
Nsg11
Nsg13
Nsg15
g62
sba(iamr_util.Actions
AMRAction
p172
(dp173
g8
I3
sg9
Nsg10
Nsg11
Nsg13
Nsg15
g62
sba(iamr_util.Actions
AMRAction
p174
(dp175
g8
I3
sg9
Nsg10
Nsg11
Nsg13
Nsg15
g62
sba(iamr_util.Actions
AMRAction
p176
(dp177
g8
I0
sg9
Nsg10
Nsg11
S'vice'
p178
sg13
S'v'
p179
sg15
g16
sba(iamr_util.Actions
AMRAction
p180
(dp181
g8
I0
sg9
Nsg10
Nsg11
S'president'
p182
sg13
S'p2'
p183
sg15
g16
sba(iamr_util.Actions
AMRAction
p184
(dp185
g8
I1
sg9
Nsg10
Nsg11
S'mod'
p186
sg13
Nsg15
g28
sba(iamr_util.Actions
AMRAction
p187
(dp188
g8
I3
sg9
Nsg10
Nsg11
Nsg13
Nsg15
g62
sba(iamr_util.Actions
AMRAction
p189
(dp190
g8
I0
sg9
Nsg10
Nsg11
S'human'
p191
sg13
S'h'
p192
sg15
g16
sba(iamr_util.Actions
AMRAction
p193
(dp194
g8
I0
sg9
Nsg10
Nsg11
S'resource'
p195
sg13
S'r'
p196
sg15
g16
sba(iamr_util.Actions
AMRAction
p197
(dp198
g8
I1
sg9
Nsg10
Nsg11
S'mod'
p199
sg13
Nsg15
g28
sba(iamr_util.Actions
AMRAction
p200
(dp201
g8
I2
sg9
Nsg10
Nsg11
S'topic'
p202
sg13
Nsg15
g59
sba(iamr_util.Actions
AMRAction
p203
(dp204
g8
I0
sg9
Nsg10
Nsg11
S'have-org-role-91'
p205
sg13
S'h2'
p206
sg15
g16
sba(iamr_util.Actions
AMRAction
p207
(dp208
g8
I1
sg9
Nsg10
Nsg11
S'ARG2'
p209
sg13
Nsg15
g28
sba(iamr_util.Actions
AMRAction
p210
(dp211
g8
I3
sg9
Nsg10
Nsg11
Nsg13
Nsg15
g62
sba(iamr_util.Actions
AMRAction
p212
(dp213
g8
I3
sg9
Nsg10
Nsg11
Nsg13
Nsg15
g62
sba(iamr_util.Actions
AMRAction
p214
(dp215
g8
I3
sg9
Nsg10
Nsg11
Nsg13
Nsg15
g62
sbaS'(p / person\n      :ARG0-of (h2 / have-org-role-91~e.8\n            :ARG1 (c / company)\n            :ARG2 (p2 / president~e.4\n                  :mod (v / vice~e.3)\n                  :topic~e.5 (r / resource~e.7\n                        :mod (h / human~e.6)))))'
p216
(dp217
(lp218
(lp219
(dp220
I1
tp221
tp222
Rp223
ag1
(g2
g3
(S'CEO of IBM'
p224
(lp225
(iamr_util.Actions
AMRAction
p226
(dp227
g8
I0
sg9
Nsg10
Nsg11
S'CEO'
p228
sg13
g38
sg15
g16
sba(iamr_util.Actions
AMRAction
p229
(dp230
g8
I0
sg9
Nsg10
Nsg11
S'have-org-role-91'
p231
sg13
g192
sg15
g16
sba(iamr_util.Actions
AMRAction
p232
(dp233
g8
I1
sg9
Nsg10
Nsg11
S'ARG2'
p234
sg13
Nsg15
g28
sba(iamr_util.Actions
AMRAction
p235
(dp236
g8
I3
sg9
Nsg10
Nsg11
Nsg13
Nsg15
g62
sbaS'(p / person\n      :ARG0-of (h / have-org-role-91~e.1\n            :ARG1 (c2 / company)\n            :ARG2 (c / CEO~e.0)))'
p237
(dp238
(lp239
(lp240
(dp241
I1
tp242
tp243
Rp244
ag1
(g2
g3
(S'They feared him even when he was behind bars .'
p245
(lp246
(iamr_util.Actions
AMRAction
p247
(dp248
g8
I0
sg9
Nsg10
Nsg11
S'they'
p249
sg13
g14
sg15
g16
sba(iamr_util.Actions
AMRAction
p250
(dp251
g8
I0
sg9
Nsg10
Nsg11
S'fear-01'
p252
sg13
S'f'
p253
sg15
g16
sba(iamr_util.Actions
AMRAction
p254
(dp255
g8
I1
sg9
Nsg10
Nsg11
S'ARG0'
p256
sg13
Nsg15
g28
sba(iamr_util.Actions
AMRAction
p257
(dp258
g8
I0
sg9
Nsg10
Nsg11
S'he'
p259
sg13
g192
sg15
g16
sba(iamr_util.Actions
AMRAction
p260
(dp261
g8
I2
sg9
Nsg10
Nsg11
S'ARG1'
p262
sg13
Nsg15
g59
sba(iamr_util.Actions
AMRAction
p263
(dp264
g8
I0
sg9
Nsg10
Nsg11
S'even-when'
p265
sg13
S'e'
p266
sg15
g16
sba(iamr_util.Actions
AMRAction
p267
(dp268
g8
I3
sg9
Nsg10
Nsg11
Nsg13
Nsg15
g62
sba(iamr_util.Actions
AMRAction
p269
(dp270
g8
I0
sg9
Nsg10
Nsg11
S'he'
p271
sg13
S'COREF_h_0'
p272
sg15
g16
sba(iamr_util.Actions
AMRAction
p273
(dp274
g8
I3
sg9
Nsg10
Nsg11
Nsg13
Nsg15
g62
sba(iamr_util.Actions
AMRAction
p275
(dp276
g8
I0
sg9
Nsg10
Nsg11
S'imprison-01'
p277
sg13
S'i'
p278
sg15
g16
sba(iamr_util.Actions
AMRAction
p279
(dp280
g8
I1
sg9
Nsg10
Nsg11
S'ARG1'
p281
sg13
Nsg15
g28
sba(iamr_util.Actions
AMRAction
p282
(dp283
g8
I2
sg9
Nsg10
Nsg11
S'op1'
p284
sg13
Nsg15
g59
sba(iamr_util.Actions
AMRAction
p285
(dp286
g8
I2
sg9
Nsg10
Nsg11
S'concession'
p287
sg13
Nsg15
g59
sba(iamr_util.Actions
AMRAction
p288
(dp289
g8
I3
sg9
Nsg10
Nsg11
Nsg13
Nsg15
g62
sba(iamr_util.Actions
AMRAction
p290
(dp291
g8
I3
sg9
Nsg10
Nsg11
Nsg13
Nsg15
g62
sbaS'(f / fear-01~e.1\n      :ARG0 (t / they~e.0)\n      :ARG1 (h / he~e.2)\n      :concession (e / even-when~e.3,4\n            :op1 (i / imprison-01~e.7,8\n                  :ARG1 (COREF_h_0 / he~e.5))))'
p292
(dp293
(lp294
(lp295
(dp296
I1
tp297
tp298
Rp299
ag1
(g2
g3
(S'I pass the resort on my way to work .'
p300
(lp301
(iamr_util.Actions
AMRAction
p302
(dp303
g8
I0
sg9
Nsg10
Nsg11
g278
sg13
g278
sg15
g16
sba(iamr_util.Actions
AMRAction
p304
(dp305
g8
I0
sg9
Nsg10
Nsg11
S'pass-02'
p306
sg13
S'p'
p307
sg15
g16
sba(iamr_util.Actions
AMRAction
p308
(dp309
g8
I1
sg9
Nsg10
Nsg11
S'ARG0'
p310
sg13
Nsg15
g28
sba(iamr_util.Actions
AMRAction
p311
(dp312
g8
I3
sg9
Nsg10
Nsg11
Nsg13
Nsg15
g62
sba(iamr_util.Actions
AMRAction
p313
(dp314
g8
I0
sg9
Nsg10
Nsg11
S'resort'
p315
sg13
g196
sg15
g16
sba(iamr_util.Actions
AMRAction
p316
(dp317
g8
I2
sg9
Nsg10
Nsg11
S'ARG1'
p318
sg13
Nsg15
g59
sba(iamr_util.Actions
AMRAction
p319
(dp320
g8
I3
sg9
Nsg10
Nsg11
Nsg13
Nsg15
g62
sba(iamr_util.Actions
AMRAction
p321
(dp322
g8
I0
sg9
Nsg10
Nsg11
g278
sg13
S'COREF_i_0'
p323
sg15
g16
sba(iamr_util.Actions
AMRAction
p324
(dp325
g8
I0
sg9
Nsg10
Nsg11
S'go-02'
p326
sg13
g91
sg15
g16
sba(iamr_util.Actions
AMRAction
p327
(dp328
g8
I1
sg9
Nsg10
Nsg11
S'ARG0'
p329
sg13
Nsg15
g28
sba(iamr_util.Actions
AMRAction
p330
(dp331
g8
I3
sg9
Nsg10
Nsg11
Nsg13
Nsg15
g62
sba(iamr_util.Actions
AMRAction
p332
(dp333
g8
I0
sg9
Nsg10
Nsg11
S'work-01'
p334
sg13
g82
sg15
g16
sba(iamr_util.Actions
AMRAction
p335
(dp336
g8
I2
sg9
Nsg10
Nsg11
S'ARG4'
p337
sg13
Nsg15
g59
sba(iamr_util.Actions
AMRAction
p338
(dp339
g8
I2
sg9
Nsg10
Nsg11
S'subevent-of'
p340
sg13
Nsg15
g59
sba(iamr_util.Actions
AMRAction
p341
(dp342
g8
I3
sg9
Nsg10
Nsg11
Nsg13
Nsg15
g62
sbaS'(p / pass-02~e.1\n      :ARG0 (i / i~e.0)\n      :ARG1 (r / resort~e.3)\n      :subevent-of~e.4 (g / go-02~e.6\n            :ARG0~e.5 (COREF_i_0 / i~e.5)\n            :ARG4~e.7 (w / work-01~e.8)))'
p343
(dp344
(lp345
(lp346
(dp347
I1
tp348
tp349
Rp350
ag1
(g2
g3
(S"He said he would support them as long as they did n't break any rules ."
p351
(lp352
(iamr_util.Actions
AMRAction
p353
(dp354
g8
I0
sg9
Nsg10
Nsg11
S'he'
p355
sg13
g192
sg15
g16
sba(iamr_util.Actions
AMRAction
p356
(dp357
g8
I0
sg9
Nsg10
Nsg11
S'say-01'
p358
sg13
g131
sg15
g16
sba(iamr_util.Actions
AMRAction
p359
(dp360
g8
I1
sg9
Nsg10
Nsg11
S'ARG0'
p361
sg13
Nsg15
g28
sba(iamr_util.Actions
AMRAction
p362
(dp363
g8
I0
sg9
Nsg10
Nsg11
S'he'
p364
sg13
S'COREF_h_0'
p365
sg15
g16
sba(iamr_util.Actions
AMRAction
p366
(dp367
g8
I3
sg9
Nsg10
Nsg11
Nsg13
Nsg15
g62
sba(iamr_util.Actions
AMRAction
p368
(dp369
g8
I0
sg9
Nsg10
Nsg11
S'support-01'
p370
sg13
S's2'
p371
sg15
g16
sba(iamr_util.Actions
AMRAction
p372
(dp373
g8
I1
sg9
Nsg10
Nsg11
S'ARG0'
p374
sg13
Nsg15
g28
sba(iamr_util.Actions
AMRAction
p375
(dp376
g8
I0
sg9
Nsg10
Nsg11
S'they'
p377
sg13
g14
sg15
g16
sba(iamr_util.Actions
AMRAction
p378
(dp379
g8
I2
sg9
Nsg10
Nsg11
S'ARG1'
p380
sg13
Nsg15
g59
sba(iamr_util.Actions
AMRAction
p381
(dp382
g8
I0
sg9
Nsg10
Nsg11
S'as-long-as'
p383
sg13
S'a'
p384
sg15
g16
sba(iamr_util.Actions
AMRAction
p385
(dp386
g8
I3
sg9
Nsg10
Nsg11
Nsg13
Nsg15
g62
sba(iamr_util.Actions
AMRAction
p387
(dp388
g8
I3
sg9
Nsg10
Nsg11
Nsg13
Nsg15
g62
sba(iamr_util.Actions
AMRAction
p389
(dp390
g8
I0
sg9
Nsg10
Nsg11
S'they'
p391
sg13
S'COREF_t_0'
p392
sg15
g16
sba(iamr_util.Actions
AMRAction
p393
(dp394
g8
I3
sg9
Nsg10
Nsg11
Nsg13
Nsg15
g62
sba(iamr_util.Actions
AMRAction
p395
(dp396
g8
I0
sg9
Nsg10
Nsg11
g1
(cutil
Polarity
p397
c__builtin__
str
p398
S'-'
p399
tp400
Rp401
sg13
g401
sg15
g16
sba(iamr_util.Actions
AMRAction
p402
(dp403
g8
I0
sg9
Nsg10
Nsg11
S'break-18'
p404
sg13
g78
sg15
g16
sba(iamr_util.Actions
AMRAction
p405
(dp406
g8
I1
sg9
Nsg10
Nsg11
S'polarity'
p407
sg13
Nsg15
g28
sba(iamr_util.Actions
AMRAction
p408
(dp409
g8
I1
sg9
Nsg10
Nsg11
S'ARG0'
p410
sg13
Nsg15
g28
sba(iamr_util.Actions
AMRAction
p411
(dp412
g8
I0
sg9
Nsg10
Nsg11
S'any'
p413
sg13
S'a2'
p414
sg15
g16
sba(iamr_util.Actions
AMRAction
p415
(dp416
g8
I0
sg9
Nsg10
Nsg11
S'rule'
p417
sg13
g196
sg15
g16
sba(iamr_util.Actions
AMRAction
p418
(dp419
g8
I1
sg9
Nsg10
Nsg11
S'mod'
p420
sg13
Nsg15
g28
sba(iamr_util.Actions
AMRAction
p421
(dp422
g8
I2
sg9
Nsg10
Nsg11
S'ARG1'
p423
sg13
Nsg15
g59
sba(iamr_util.Actions
AMRAction
p424
(dp425
g8
I2
sg9
Nsg10
Nsg11
S'op1'
p426
sg13
Nsg15
g59
sba(iamr_util.Actions
AMRAction
p427
(dp428
g8
I2
sg9
Nsg10
Nsg11
S'condition'
p429
sg13
Nsg15
g59
sba(iamr_util.Actions
AMRAction
p430
(dp431
g8
I2
sg9
Nsg10
Nsg11
S'ARG1'
p432
sg13
Nsg15
g59
sba(iamr_util.Actions
AMRAction
p433
(dp434
g8
I3
sg9
Nsg10
Nsg11
Nsg13
Nsg15
g62
sbaS'(s / say-01~e.1\n      :ARG0 (h / he~e.0)\n      :ARG1 (s2 / support-01~e.4\n            :ARG0 (COREF_h_0 / he~e.2)\n            :ARG1 (t / they~e.5)\n            :condition (a / as-long-as~e.6,7,8\n                  :op1 (b / break-18~e.12 :polarity~e.11 -~e.11\n                        :ARG0 (COREF_t_0 / they~e.9)\n                        :ARG1 (r / rule~e.14\n                              :mod (a2 / any~e.13))))))'
p435
(dp436
(lp437
(lp438
(dp439
I1
tp440
tp441
Rp442
ag1
(g2
g3
(S'You may stay for as long as you like .'
p443
(lp444
(iamr_util.Actions
AMRAction
p445
(dp446
g8
I0
sg9
Nsg10
Nsg11
S'you'
p447
sg13
S'y'
p448
sg15
g16
sba(iamr_util.Actions
AMRAction
p449
(dp450
g8
I0
sg9
Nsg10
Nsg11
S'permit-01'
p451
sg13
g307
sg15
g16
sba(iamr_util.Actions
AMRAction
p452
(dp453
g8
I0
sg9
Nsg10
Nsg11
S'stay-01'
p454
sg13
g131
sg15
g16
sba(iamr_util.Actions
AMRAction
p455
(dp456
g8
I4
sg9
Nsg10
Nsg11
Nsg13
Nsg15
S'SW'
p457
sba(iamr_util.Actions
AMRAction
p458
(dp459
g8
I1
sg9
Nsg10
Nsg11
S'ARG1'
p460
sg13
Nsg15
g28
sba(iamr_util.Actions
AMRAction
p461
(dp462
g8
I3
sg9
Nsg10
Nsg11
Nsg13
Nsg15
g62
sba(iamr_util.Actions
AMRAction
p463
(dp464
g8
I3
sg9
Nsg10
Nsg11
Nsg13
Nsg15
g62
sba(iamr_util.Actions
AMRAction
p465
(dp466
g8
I3
sg9
Nsg10
Nsg11
Nsg13
Nsg15
g62
sba(iamr_util.Actions
AMRAction
p467
(dp468
g8
I3
sg9
Nsg10
Nsg11
Nsg13
Nsg15
g62
sba(iamr_util.Actions
AMRAction
p469
(dp470
g8
I0
sg9
Nsg10
Nsg11
S'you'
p471
sg13
S'COREF_y_0'
p472
sg15
g16
sba(iamr_util.Actions
AMRAction
p473
(dp474
g8
I0
sg9
Nsg10
Nsg11
S'like-02'
p475
sg13
S'l'
p476
sg15
g16
sba(iamr_util.Actions
AMRAction
p477
(dp478
g8
I1
sg9
Nsg10
Nsg11
S'ARG0'
p479
sg13
Nsg15
g28
sba(iamr_util.Actions
AMRAction
p480
(dp481
g8
I2
sg9
Nsg10
Nsg11
S'duration'
p482
sg13
Nsg15
g59
sba(iamr_util.Actions
AMRAction
p483
(dp484
g8
I2
sg9
Nsg10
Nsg11
S'ARG1'
p485
sg13
Nsg15
g59
sba(iamr_util.Actions
AMRAction
p486
(dp487
g8
I3
sg9
Nsg10
Nsg11
Nsg13
Nsg15
g62
sbaS'(p / permit-01~e.1\n      :ARG1 (s / stay-01~e.2\n            :ARG1 (y / you~e.0)\n            :duration~e.6 (l / like-02~e.8\n                  :ARG0 (COREF_y_0 / you~e.7))))'
p488
(dp489
(lp490
(lp491
(dp492
I1
tp493
tp494
Rp495
ag1
(g2
g3
(S'I think , therefore I am .'
p496
(lp497
(iamr_util.Actions
AMRAction
p498
(dp499
g8
I0
sg9
Nsg10
Nsg11
g278
sg13
S'COREF_i2_0'
p500
sg15
g16
sba(iamr_util.Actions
AMRAction
p501
(dp502
g8
I0
sg9
Nsg10
Nsg11
S'think-01'
p503
sg13
g14
sg15
g16
sba(iamr_util.Actions
AMRAction
p504
(dp505
g8
I1
sg9
Nsg10
Nsg11
S'ARG0'
p506
sg13
Nsg15
g28
sba(iamr_util.Actions
AMRAction
p507
(dp508
g8
I3
sg9
Nsg10
Nsg11
Nsg13
Nsg15
g62
sba(iamr_util.Actions
AMRAction
p509
(dp510
g8
I0
sg9
Nsg10
Nsg11
S'infer-01'
p511
sg13
g278
sg15
g16
sba(iamr_util.Actions
AMRAction
p512
(dp513
g8
I1
sg9
Nsg10
Nsg11
S'ARG2'
p514
sg13
Nsg15
g28
sba(iamr_util.Actions
AMRAction
p515
(dp516
g8
I0
sg9
Nsg10
Nsg11
g278
sg13
S'i2'
p517
sg15
g16
sba(iamr_util.Actions
AMRAction
p518
(dp519
g8
I0
sg9
Nsg10
Nsg11
S'be-02'
p520
sg13
g78
sg15
g16
sba(iamr_util.Actions
AMRAction
p521
(dp522
g8
I1
sg9
Nsg10
Nsg11
S'ARG1'
p523
sg13
Nsg15
g28
sba(iamr_util.Actions
AMRAction
p524
(dp525
g8
I2
sg9
Nsg10
Nsg11
S'ARG1'
p526
sg13
Nsg15
g59
sba(iamr_util.Actions
AMRAction
p527
(dp528
g8
I3
sg9
Nsg10
Nsg11
Nsg13
Nsg15
g62
sbaS'(i / infer-01~e.3\n      :ARG1 (b / be-02~e.5\n            :ARG1 (i2 / i~e.4))\n      :ARG2 (t / think-01~e.1\n            :ARG0 (COREF_i2_0 / i~e.0)))'
p529
(dp530
(lp531
(lp532
(dp533
I1
tp534
tp535
Rp536
ag1
(g2
g3
(S'Dad , I need more money .'
p537
(lp538
(iamr_util.Actions
AMRAction
p539
(dp540
g8
I3
sg9
Nsg10
Nsg11
Nsg13
Nsg15
g62
sba(iamr_util.Actions
AMRAction
p541
(dp542
g8
I3
sg9
Nsg10
Nsg11
Nsg13
Nsg15
g62
sba(iamr_util.Actions
AMRAction
p543
(dp544
g8
I0
sg9
Nsg10
Nsg11
g278
sg13
g278
sg15
g16
sba(iamr_util.Actions
AMRAction
p545
(dp546
g8
I0
sg9
Nsg10
Nsg11
S'need-01'
p547
sg13
S'n'
p548
sg15
g16
sba(iamr_util.Actions
AMRAction
p549
(dp550
g8
I1
sg9
Nsg10
Nsg11
S'ARG0'
p551
sg13
Nsg15
g28
sba(iamr_util.Actions
AMRAction
p552
(dp553
g8
I0
sg9
Nsg10
Nsg11
S'more'
p554
sg13
S'm2'
p555
sg15
g16
sba(iamr_util.Actions
AMRAction
p556
(dp557
g8
I0
sg9
Nsg10
Nsg11
S'money'
p558
sg13
g24
sg15
g16
sba(iamr_util.Actions
AMRAction
p559
(dp560
g8
I1
sg9
Nsg10
Nsg11
S'mod'
p561
sg13
Nsg15
g28
sba(iamr_util.Actions
AMRAction
p562
(dp563
g8
I2
sg9
Nsg10
Nsg11
S'ARG1'
p564
sg13
Nsg15
g59
sba(iamr_util.Actions
AMRAction
p565
(dp566
g8
I3
sg9
Nsg10
Nsg11
Nsg13
Nsg15
g62
sbaS'(s / say-01\n      :ARG0 (COREF_i_0 / i)\n      :ARG1 (n / need-01~e.3\n            :ARG0 (i / i~e.2)\n            :ARG1 (m / money~e.5\n                  :mod (m2 / more~e.4)))\n      :ARG2 (p / person\n            :ARG0-of (h / have-rel-role-91\n                  :ARG1 (COREF_i_1 / i)\n                  :ARG2 (f / father))))'
p567
(dp568
(lp569
(lp570
(dp571
I1
tp572
tp573
Rp574
ag1
(g2
g3
(S'The boy lost his toy .'
p575
(lp576
(iamr_util.Actions
AMRAction
p577
(dp578
g8
I3
sg9
Nsg10
Nsg11
Nsg13
Nsg15
g62
sba(iamr_util.Actions
AMRAction
p579
(dp580
g8
I0
sg9
Nsg10
Nsg11
S'boy'
p581
sg13
g78
sg15
g16
sba(iamr_util.Actions
AMRAction
p582
(dp583
g8
I0
sg9
Nsg10
Nsg11
S'lose-02'
p584
sg13
g476
sg15
g16
sba(iamr_util.Actions
AMRAction
p585
(dp586
g8
I1
sg9
Nsg10
Nsg11
S'ARG0'
p587
sg13
Nsg15
g28
sba(iamr_util.Actions
AMRAction
p588
(dp589
g8
I0
sg9
Nsg10
Nsg11
S'boy'
p590
sg13
S'COREF_b_0'
p591
sg15
g16
sba(iamr_util.Actions
AMRAction
p592
(dp593
g8
I0
sg9
Nsg10
Nsg11
S'toy'
p594
sg13
g14
sg15
g16
sba(iamr_util.Actions
AMRAction
p595
(dp596
g8
I1
sg9
Nsg10
Nsg11
S'poss'
p597
sg13
Nsg15
g28
sba(iamr_util.Actions
AMRAction
p598
(dp599
g8
I2
sg9
Nsg10
Nsg11
S'ARG1'
p600
sg13
Nsg15
g59
sba(iamr_util.Actions
AMRAction
p601
(dp602
g8
I3
sg9
Nsg10
Nsg11
Nsg13
Nsg15
g62
sbaS'(l / lose-02~e.2\n      :ARG0 (b / boy~e.1)\n      :ARG1 (t / toy~e.4\n            :poss~e.3 (COREF_b_0 / boy~e.3)))'
p603
(dp604
(lp605
(lp606
(dp607
I1
tp608
tp609
Rp610
ag1
(g2
g3
(S'The boy said , " I am hungry ."'
p611
(lp612
(iamr_util.Actions
AMRAction
p613
(dp614
g8
I3
sg9
Nsg10
Nsg11
Nsg13
Nsg15
g62
sba(iamr_util.Actions
AMRAction
p615
(dp616
g8
I0
sg9
Nsg10
Nsg11
S'boy'
p617
sg13
g78
sg15
g16
sba(iamr_util.Actions
AMRAction
p618
(dp619
g8
I0
sg9
Nsg10
Nsg11
S'say-01'
p620
sg13
g131
sg15
g16
sba(iamr_util.Actions
AMRAction
p621
(dp622
g8
I1
sg9
Nsg10
Nsg11
S'ARG0'
p623
sg13
Nsg15
g28
sba(iamr_util.Actions
AMRAction
p624
(dp625
g8
I3
sg9
Nsg10
Nsg11
Nsg13
Nsg15
g62
sba(iamr_util.Actions
AMRAction
p626
(dp627
g8
I3
sg9
Nsg10
Nsg11
Nsg13
Nsg15
g62
sba(iamr_util.Actions
AMRAction
p628
(dp629
g8
I0
sg9
Nsg10
Nsg11
S'boy'
p630
sg13
S'COREF_b_0'
p631
sg15
g16
sba(iamr_util.Actions
AMRAction
p632
(dp633
g8
I3
sg9
Nsg10
Nsg11
Nsg13
Nsg15
g62
sba(iamr_util.Actions
AMRAction
p634
(dp635
g8
I0
sg9
Nsg10
Nsg11
S'hunger-01'
p636
sg13
g192
sg15
g16
sba(iamr_util.Actions
AMRAction
p637
(dp638
g8
I1
sg9
Nsg10
Nsg11
S'ARG0'
p639
sg13
Nsg15
g28
sba(iamr_util.Actions
AMRAction
p640
(dp641
g8
I2
sg9
Nsg10
Nsg11
S'ARG1'
p642
sg13
Nsg15
g59
sba(iamr_util.Actions
AMRAction
p643
(dp644
g8
I3
sg9
Nsg10
Nsg11
Nsg13
Nsg15
g62
sbaS'(s / say-01~e.2\n      :ARG0 (b / boy~e.1)\n      :ARG1 (h / hunger-01~e.7\n            :ARG0 (COREF_b_0 / boy~e.5)))'
p645
(dp646
(lp647
(lp648
(dp649
I1
tp650
tp651
Rp652
ag1
(g2
g3
(S'When he opened his eyes , John saw himself in the mirror .'
p653
(lp654
(iamr_util.Actions
AMRAction
p655
(dp656
g8
I3
sg9
Nsg10
Nsg11
Nsg13
Nsg15
g62
sba(iamr_util.Actions
AMRAction
p657
(dp658
g8
I0
sg9
Nsg10
Nsg11
S'person'
p659
sg13
S'COREF_p_1'
p660
sg15
g16
sba(iamr_util.Actions
AMRAction
p661
(dp662
g8
I0
sg9
Nsg10
Nsg11
S'open-01'
p663
sg13
S'o'
p664
sg15
g16
sba(iamr_util.Actions
AMRAction
p665
(dp666
g8
I1
sg9
Nsg10
Nsg11
S'ARG0'
p667
sg13
Nsg15
g28
sba(iamr_util.Actions
AMRAction
p668
(dp669
g8
I0
sg9
Nsg10
Nsg11
S'person'
p670
sg13
S'COREF_p_2'
p671
sg15
g16
sba(iamr_util.Actions
AMRAction
p672
(dp673
g8
I0
sg9
Nsg10
Nsg11
S'eye'
p674
sg13
g266
sg15
g16
sba(iamr_util.Actions
AMRAction
p675
(dp676
g8
I1
sg9
Nsg10
Nsg11
S'part-of'
p677
sg13
Nsg15
g28
sba(iamr_util.Actions
AMRAction
p678
(dp679
g8
I2
sg9
Nsg10
Nsg11
S'ARG1'
p680
sg13
Nsg15
g59
sba(iamr_util.Actions
AMRAction
p681
(dp682
g8
I3
sg9
Nsg10
Nsg11
Nsg13
Nsg15
g62
sba(iamr_util.Actions
AMRAction
p683
(dp684
g8
I3
sg9
Nsg10
Nsg11
Nsg13
Nsg15
g62
sba(iamr_util.Actions
AMRAction
p685
(dp686
g8
I0
sg9
Nsg10
Nsg11
S'see-01'
p687
sg13
g131
sg15
g16
sba(iamr_util.Actions
AMRAction
p688
(dp689
g8
I1
sg9
Nsg10
Nsg11
S'time'
p690
sg13
Nsg15
g28
sba(iamr_util.Actions
AMRAction
p691
(dp692
g8
I3
sg9
Nsg10
Nsg11
Nsg13
Nsg15
g62
sba(iamr_util.Actions
AMRAction
p693
(dp694
g8
I3
sg9
Nsg10
Nsg11
Nsg13
Nsg15
g62
sba(iamr_util.Actions
AMRAction
p695
(dp696
g8
I3
sg9
Nsg10
Nsg11
Nsg13
Nsg15
g62
sba(iamr_util.Actions
AMRAction
p697
(dp698
g8
I0
sg9
Nsg10
Nsg11
S'mirror'
p699
sg13
g24
sg15
g16
sba(iamr_util.Actions
AMRAction
p700
(dp701
g8
I2
sg9
Nsg10
Nsg11
S'location'
p702
sg13
Nsg15
g59
sba(iamr_util.Actions
AMRAction
p703
(dp704
g8
I3
sg9
Nsg10
Nsg11
Nsg13
Nsg15
g62
sbaS'(s / see-01~e.7\n      :ARG0 (p / person)\n      :ARG1 (COREF_p_0 / person)\n      :location~e.9 (m / mirror~e.11)\n      :time~e.0 (o / open-01~e.2\n            :ARG0 (COREF_p_1 / person~e.1)\n            :ARG1 (e / eye~e.4\n                  :part-of~e.3 (COREF_p_2 / person~e.3))))'
p705
(dp706
(lp707
(lp708
(dp709
I1
tp710
tp711
Rp712
ag1
(g2
g3
(S'He hit the lamp with his head .'
p713
(lp714
(iamr_util.Actions
AMRAction
p715
(dp716
g8
I0
sg9
Nsg10
Nsg11
S'he'
p717
sg13
S'h2'
p718
sg15
g16
sba(iamr_util.Actions
AMRAction
p719
(dp720
g8
I0
sg9
Nsg10
Nsg11
S'hit-01'
p721
sg13
g192
sg15
g16
sba(iamr_util.Actions
AMRAction
p722
(dp723
g8
I1
sg9
Nsg10
Nsg11
S'ARG0'
p724
sg13
Nsg15
g28
sba(iamr_util.Actions
AMRAction
p725
(dp726
g8
I3
sg9
Nsg10
Nsg11
Nsg13
Nsg15
g62
sba(iamr_util.Actions
AMRAction
p727
(dp728
g8
I0
sg9
Nsg10
Nsg11
S'lamp'
p729
sg13
g476
sg15
g16
sba(iamr_util.Actions
AMRAction
p730
(dp731
g8
I2
sg9
Nsg10
Nsg11
S'ARG1'
p732
sg13
Nsg15
g59
sba(iamr_util.Actions
AMRAction
p733
(dp734
g8
I3
sg9
Nsg10
Nsg11
Nsg13
Nsg15
g62
sba(iamr_util.Actions
AMRAction
p735
(dp736
g8
I0
sg9
Nsg10
Nsg11
S'he'
p737
sg13
S'COREF_h2_0'
p738
sg15
g16
sba(iamr_util.Actions
AMRAction
p739
(dp740
g8
I0
sg9
Nsg10
Nsg11
S'head'
p741
sg13
S'h3'
p742
sg15
g16
sba(iamr_util.Actions
AMRAction
p743
(dp744
g8
I1
sg9
Nsg10
Nsg11
S'part-of'
p745
sg13
Nsg15
g28
sba(iamr_util.Actions
AMRAction
p746
(dp747
g8
I2
sg9
Nsg10
Nsg11
S'ARG2'
p748
sg13
Nsg15
g59
sba(iamr_util.Actions
AMRAction
p749
(dp750
g8
I3
sg9
Nsg10
Nsg11
Nsg13
Nsg15
g62
sbaS'(h / hit-01~e.1\n      :ARG0 (h2 / he~e.0)\n      :ARG1 (l / lamp~e.3)\n      :ARG2~e.4 (h3 / head~e.6\n            :part-of~e.5 (COREF_h2_0 / he~e.5)))'
p751
(dp752
(lp753
(lp754
(dp755
I1
tp756
tp757
Rp758
ag1
(g2
g3
(S'He ate the pizza with his fingers .'
p759
(lp760
(iamr_util.Actions
AMRAction
p761
(dp762
g8
I0
sg9
Nsg10
Nsg11
S'he'
p763
sg13
g192
sg15
g16
sba(iamr_util.Actions
AMRAction
p764
(dp765
g8
I0
sg9
Nsg10
Nsg11
S'eat-01'
p766
sg13
g266
sg15
g16
sba(iamr_util.Actions
AMRAction
p767
(dp768
g8
I1
sg9
Nsg10
Nsg11
S'ARG0'
p769
sg13
Nsg15
g28
sba(iamr_util.Actions
AMRAction
p770
(dp771
g8
I3
sg9
Nsg10
Nsg11
Nsg13
Nsg15
g62
sba(iamr_util.Actions
AMRAction
p772
(dp773
g8
I0
sg9
Nsg10
Nsg11
S'pizza'
p774
sg13
g307
sg15
g16
sba(iamr_util.Actions
AMRAction
p775
(dp776
g8
I2
sg9
Nsg10
Nsg11
S'ARG1'
p777
sg13
Nsg15
g59
sba(iamr_util.Actions
AMRAction
p778
(dp779
g8
I3
sg9
Nsg10
Nsg11
Nsg13
Nsg15
g62
sba(iamr_util.Actions
AMRAction
p780
(dp781
g8
I0
sg9
Nsg10
Nsg11
S'he'
p782
sg13
S'COREF_h_0'
p783
sg15
g16
sba(iamr_util.Actions
AMRAction
p784
(dp785
g8
I0
sg9
Nsg10
Nsg11
S'finger'
p786
sg13
g253
sg15
g16
sba(iamr_util.Actions
AMRAction
p787
(dp788
g8
I1
sg9
Nsg10
Nsg11
S'part-of'
p789
sg13
Nsg15
g28
sba(iamr_util.Actions
AMRAction
p790
(dp791
g8
I2
sg9
Nsg10
Nsg11
S'instrument'
p792
sg13
Nsg15
g59
sba(iamr_util.Actions
AMRAction
p793
(dp794
g8
I3
sg9
Nsg10
Nsg11
Nsg13
Nsg15
g62
sbaS'(e / eat-01~e.1\n      :ARG0 (h / he~e.0)\n      :ARG1 (p / pizza~e.3)\n      :instrument~e.4 (f / finger~e.6\n            :part-of~e.5 (COREF_h_0 / he~e.5)))'
p795
(dp796
(lp797
(lp798
(dp799
I1
tp800
tp801
Rp802
ag1
(g2
g3
(S"I can n't do work at home , because she shouts at me ."
p803
(lp804
(iamr_util.Actions
AMRAction
p805
(dp806
g8
I0
sg9
Nsg10
Nsg11
g278
sg13
g278
sg15
g16
sba(iamr_util.Actions
AMRAction
p807
(dp808
g8
I0
sg9
Nsg10
Nsg11
S'possible-01'
p809
sg13
g307
sg15
g16
sba(iamr_util.Actions
AMRAction
p810
(dp811
g8
I0
sg9
Nsg10
Nsg11
g1
(g397
g398
g399
tp812
Rp813
sg13
g813
sg15
g16
sba(iamr_util.Actions
AMRAction
p814
(dp815
g8
I2
sg9
Nsg10
Nsg11
S'polarity'
p816
sg13
Nsg15
g59
sba(iamr_util.Actions
AMRAction
p817
(dp818
g8
I0
sg9
Nsg10
Nsg11
S'work-01'
p819
sg13
g82
sg15
g16
sba(iamr_util.Actions
AMRAction
p820
(dp821
g8
I4
sg9
Nsg10
Nsg11
Nsg13
Nsg15
g457
sba(iamr_util.Actions
AMRAction
p822
(dp823
g8
I1
sg9
Nsg10
Nsg11
S'ARG0'
p824
sg13
Nsg15
g28
sba(iamr_util.Actions
AMRAction
p825
(dp826
g8
I3
sg9
Nsg10
Nsg11
Nsg13
Nsg15
g62
sba(iamr_util.Actions
AMRAction
p827
(dp828
g8
I3
sg9
Nsg10
Nsg11
Nsg13
Nsg15
g62
sba(iamr_util.Actions
AMRAction
p829
(dp830
g8
I0
sg9
Nsg10
Nsg11
S'home'
p831
sg13
g192
sg15
g16
sba(iamr_util.Actions
AMRAction
p832
(dp833
g8
I2
sg9
Nsg10
Nsg11
S'location'
p834
sg13
Nsg15
g59
sba(iamr_util.Actions
AMRAction
p835
(dp836
g8
I2
sg9
Nsg10
Nsg11
S'ARG1'
p837
sg13
Nsg15
g59
sba(iamr_util.Actions
AMRAction
p838
(dp839
g8
I3
sg9
Nsg10
Nsg11
Nsg13
Nsg15
g62
sba(iamr_util.Actions
AMRAction
p840
(dp841
g8
I0
sg9
Nsg10
Nsg11
S'cause-01'
p842
sg13
g38
sg15
g16
sba(iamr_util.Actions
AMRAction
p843
(dp844
g8
I0
sg9
Nsg10
Nsg11
S'she'
p845
sg13
S's2'
p846
sg15
g16
sba(iamr_util.Actions
AMRAction
p847
(dp848
g8
I0
sg9
Nsg10
Nsg11
S'shout-01'
p849
sg13
g131
sg15
g16
sba(iamr_util.Actions
AMRAction
p850
(dp851
g8
I1
sg9
Nsg10
Nsg11
S'ARG0'
p852
sg13
Nsg15
g28
sba(iamr_util.Actions
AMRAction
p853
(dp854
g8
I3
sg9
Nsg10
Nsg11
Nsg13
Nsg15
g62
sba(iamr_util.Actions
AMRAction
p855
(dp856
g8
I0
sg9
Nsg10
Nsg11
g278
sg13
S'COREF_i_0'
p857
sg15
g16
sba(iamr_util.Actions
AMRAction
p858
(dp859
g8
I2
sg9
Nsg10
Nsg11
S'ARG2'
p860
sg13
Nsg15
g59
sba(iamr_util.Actions
AMRAction
p861
(dp862
g8
I2
sg9
Nsg10
Nsg11
S'ARG0'
p863
sg13
Nsg15
g59
sba(iamr_util.Actions
AMRAction
p864
(dp865
g8
I2
sg9
Nsg10
Nsg11
S'ARG1-of'
p866
sg13
Nsg15
g59
sba(iamr_util.Actions
AMRAction
p867
(dp868
g8
I3
sg9
Nsg10
Nsg11
Nsg13
Nsg15
g62
sbaS'(p / possible-01~e.1 :polarity~e.2 -~e.2\n      :ARG1 (w / work-01~e.3,4\n            :ARG0 (i / i~e.0)\n            :location~e.5 (h / home~e.6))\n      :ARG1-of (c / cause-01~e.8\n            :ARG0 (s / shout-01~e.10\n                  :ARG0 (s2 / she~e.9)\n                  :ARG2~e.11 (COREF_i_0 / i~e.12))))'
p869
(dp870
(lp871
(lp872
(dp873
I1
tp874
tp875
Rp876
ag1
(g2
g3
(S'He acted as if he owned the company .'
p877
(lp878
(iamr_util.Actions
AMRAction
p879
(dp880
g8
I0
sg9
Nsg10
Nsg11
S'he'
p881
sg13
g192
sg15
g16
sba(iamr_util.Actions
AMRAction
p882
(dp883
g8
I0
sg9
Nsg10
Nsg11
S'act-01'
p884
sg13
g384
sg15
g16
sba(iamr_util.Actions
AMRAction
p885
(dp886
g8
I1
sg9
Nsg10
Nsg11
S'ARG0'
p887
sg13
Nsg15
g28
sba(iamr_util.Actions
AMRAction
p888
(dp889
g8
I3
sg9
Nsg10
Nsg11
Nsg13
Nsg15
g62
sba(iamr_util.Actions
AMRAction
p890
(dp891
g8
I3
sg9
Nsg10
Nsg11
Nsg13
Nsg15
g62
sba(iamr_util.Actions
AMRAction
p892
(dp893
g8
I0
sg9
Nsg10
Nsg11
S'he'
p894
sg13
S'COREF_h_0'
p895
sg15
g16
sba(iamr_util.Actions
AMRAction
p896
(dp897
g8
I0
sg9
Nsg10
Nsg11
S'own-01'
p898
sg13
g664
sg15
g16
sba(iamr_util.Actions
AMRAction
p899
(dp900
g8
I1
sg9
Nsg10
Nsg11
S'ARG0'
p901
sg13
Nsg15
g28
sba(iamr_util.Actions
AMRAction
p902
(dp903
g8
I3
sg9
Nsg10
Nsg11
Nsg13
Nsg15
g62
sba(iamr_util.Actions
AMRAction
p904
(dp905
g8
I0
sg9
Nsg10
Nsg11
S'company'
p906
sg13
g38
sg15
g16
sba(iamr_util.Actions
AMRAction
p907
(dp908
g8
I2
sg9
Nsg10
Nsg11
S'ARG1'
p909
sg13
Nsg15
g59
sba(iamr_util.Actions
AMRAction
p910
(dp911
g8
I2
sg9
Nsg10
Nsg11
S'conj-as-if'
p912
sg13
Nsg15
g59
sba(iamr_util.Actions
AMRAction
p913
(dp914
g8
I3
sg9
Nsg10
Nsg11
Nsg13
Nsg15
g62
sbaS'(a / act-01~e.1\n      :ARG0 (h / he~e.0)\n      :conj-as-if~e.2,3 (o / own-01~e.5\n            :ARG0 (COREF_h_0 / he~e.4)\n            :ARG1 (c / company~e.7)))'
p915
(dp916
(lp917
(lp918
(dp919
I1
tp920
tp921
Rp922
ag1
(g2
g3
(S'How did you get him to help you ?'
p923
(lp924
(iamr_util.Actions
AMRAction
p925
(dp926
g8
I0
sg9
Nsg10
Nsg11
S'amr-unknown'
p927
sg13
g384
sg15
g16
sba(iamr_util.Actions
AMRAction
p928
(dp929
g8
I3
sg9
Nsg10
Nsg11
Nsg13
Nsg15
g62
sba(iamr_util.Actions
AMRAction
p930
(dp931
g8
I0
sg9
Nsg10
Nsg11
S'you'
p932
sg13
g448
sg15
g16
sba(iamr_util.Actions
AMRAction
p933
(dp934
g8
I0
sg9
Nsg10
Nsg11
S'get-04'
p935
sg13
g91
sg15
g16
sba(iamr_util.Actions
AMRAction
p936
(dp937
g8
I1
sg9
Nsg10
Nsg11
S'ARG0'
p938
sg13
Nsg15
g28
sba(iamr_util.Actions
AMRAction
p939
(dp940
g8
I1
sg9
Nsg10
Nsg11
S'manner'
p941
sg13
Nsg15
g28
sba(iamr_util.Actions
AMRAction
p942
(dp943
g8
I0
sg9
Nsg10
Nsg11
S'he'
p944
sg13
S'h2'
p945
sg15
g16
sba(iamr_util.Actions
AMRAction
p946
(dp947
g8
I3
sg9
Nsg10
Nsg11
Nsg13
Nsg15
g62
sba(iamr_util.Actions
AMRAction
p948
(dp949
g8
I0
sg9
Nsg10
Nsg11
S'help-01'
p950
sg13
g192
sg15
g16
sba(iamr_util.Actions
AMRAction
p951
(dp952
g8
I1
sg9
Nsg10
Nsg11
S'ARG0'
p953
sg13
Nsg15
g28
sba(iamr_util.Actions
AMRAction
p954
(dp955
g8
I0
sg9
Nsg10
Nsg11
S'you'
p956
sg13
S'COREF_y_0'
p957
sg15
g16
sba(iamr_util.Actions
AMRAction
p958
(dp959
g8
I2
sg9
Nsg10
Nsg11
S'ARG1'
p960
sg13
Nsg15
g59
sba(iamr_util.Actions
AMRAction
p961
(dp962
g8
I2
sg9
Nsg10
Nsg11
S'ARG1'
p963
sg13
Nsg15
g59
sba(iamr_util.Actions
AMRAction
p964
(dp965
g8
I3
sg9
Nsg10
Nsg11
Nsg13
Nsg15
g62
sbaS'(g / get-04~e.3\n      :ARG0 (y / you~e.2)\n      :ARG1 (h / help-01~e.6\n            :ARG0 (h2 / he~e.4)\n            :ARG1 (COREF_y_0 / you~e.7))\n      :manner~e.0 (a / amr-unknown~e.0))'
p966
(dp967
(lp968
(lp969
(dp970
I1
tp971
tp972
Rp973
ag1
(g2
g3
(S"Mary 's ex @-@ husband John"
p974
(lp975
(iamr_util.Actions
AMRAction
p976
(dp977
g8
I3
sg9
Nsg10
Nsg11
Nsg13
Nsg15
g62
sba(iamr_util.Actions
AMRAction
p978
(dp979
g8
I0
sg9
Nsg10
Nsg11
S'have-rel-role-91'
p980
sg13
g192
sg15
g16
sba(iamr_util.Actions
AMRAction
p981
(dp982
g8
I0
sg9
Nsg10
Nsg11
S'ex'
p983
sg13
g266
sg15
g16
sba(iamr_util.Actions
AMRAction
p984
(dp985
g8
I2
sg9
Nsg10
Nsg11
S'time'
p986
sg13
Nsg15
g59
sba(iamr_util.Actions
AMRAction
p987
(dp988
g8
I3
sg9
Nsg10
Nsg11
Nsg13
Nsg15
g62
sba(iamr_util.Actions
AMRAction
p989
(dp990
g8
I0
sg9
Nsg10
Nsg11
S'husband'
p991
sg13
S'h2'
p992
sg15
g16
sba(iamr_util.Actions
AMRAction
p993
(dp994
g8
I2
sg9
Nsg10
Nsg11
S'ARG2'
p995
sg13
Nsg15
g59
sba(iamr_util.Actions
AMRAction
p996
(dp997
g8
I3
sg9
Nsg10
Nsg11
Nsg13
Nsg15
g62
sbaS'(p / person\n      :ARG0-of (h / have-rel-role-91~e.1\n            :ARG1 (p2 / person)\n            :ARG2 (h2 / husband~e.4)\n            :time (e / ex~e.2)))'
p998
(dp999
(lp1000
(lp1001
(dp1002
I1
tp1003
tp1004
Rp1005
ag1
(g2
g3
(S'She bought an axe so that she could chop down the tree .'
p1006
(lp1007
(iamr_util.Actions
AMRAction
p1008
(dp1009
g8
I0
sg9
Nsg10
Nsg11
S'she'
p1010
sg13
g131
sg15
g16
sba(iamr_util.Actions
AMRAction
p1011
(dp1012
g8
I0
sg9
Nsg10
Nsg11
S'buy-01'
p1013
sg13
g78
sg15
g16
sba(iamr_util.Actions
AMRAction
p1014
(dp1015
g8
I1
sg9
Nsg10
Nsg11
S'ARG0'
p1016
sg13
Nsg15
g28
sba(iamr_util.Actions
AMRAction
p1017
(dp1018
g8
I3
sg9
Nsg10
Nsg11
Nsg13
Nsg15
g62
sba(iamr_util.Actions
AMRAction
p1019
(dp1020
g8
I0
sg9
Nsg10
Nsg11
S'axe'
p1021
sg13
g384
sg15
g16
sba(iamr_util.Actions
AMRAction
p1022
(dp1023
g8
I2
sg9
Nsg10
Nsg11
S'ARG1'
p1024
sg13
Nsg15
g59
sba(iamr_util.Actions
AMRAction
p1025
(dp1026
g8
I3
sg9
Nsg10
Nsg11
Nsg13
Nsg15
g62
sba(iamr_util.Actions
AMRAction
p1027
(dp1028
g8
I3
sg9
Nsg10
Nsg11
Nsg13
Nsg15
g62
sba(iamr_util.Actions
AMRAction
p1029
(dp1030
g8
I0
sg9
Nsg10
Nsg11
S'she'
p1031
sg13
S'COREF_s_0'
p1032
sg15
g16
sba(iamr_util.Actions
AMRAction
p1033
(dp1034
g8
I3
sg9
Nsg10
Nsg11
Nsg13
Nsg15
g62
sba(iamr_util.Actions
AMRAction
p1035
(dp1036
g8
I0
sg9
Nsg10
Nsg11
S'chop-down-02'
p1037
sg13
g38
sg15
g16
sba(iamr_util.Actions
AMRAction
p1038
(dp1039
g8
I1
sg9
Nsg10
Nsg11
S'ARG0'
p1040
sg13
Nsg15
g28
sba(iamr_util.Actions
AMRAction
p1041
(dp1042
g8
I3
sg9
Nsg10
Nsg11
Nsg13
Nsg15
g62
sba(iamr_util.Actions
AMRAction
p1043
(dp1044
g8
I3
sg9
Nsg10
Nsg11
Nsg13
Nsg15
g62
sba(iamr_util.Actions
AMRAction
p1045
(dp1046
g8
I0
sg9
Nsg10
Nsg11
S'tree'
p1047
sg13
g14
sg15
g16
sba(iamr_util.Actions
AMRAction
p1048
(dp1049
g8
I2
sg9
Nsg10
Nsg11
S'ARG1'
p1050
sg13
Nsg15
g59
sba(iamr_util.Actions
AMRAction
p1051
(dp1052
g8
I2
sg9
Nsg10
Nsg11
S'purpose'
p1053
sg13
Nsg15
g59
sba(iamr_util.Actions
AMRAction
p1054
(dp1055
g8
I3
sg9
Nsg10
Nsg11
Nsg13
Nsg15
g62
sbaS'(b / buy-01~e.1\n      :ARG0 (s / she~e.0)\n      :ARG1 (a / axe~e.3)\n      :purpose~e.4,5 (c / chop-down-02~e.8,9\n            :ARG0 (COREF_s_0 / she~e.6)\n            :ARG1 (t / tree~e.11)))'
p1056
(dp1057
(lp1058
(lp1059
(dp1060
I1
tp1061
tp1062
Rp1063
ag1
(g2
g3
(S"As much as I would like to come , I can n't ."
p1064
(lp1065
(iamr_util.Actions
AMRAction
p1066
(dp1067
g8
I3
sg9
Nsg10
Nsg11
Nsg13
Nsg15
g62
sba(iamr_util.Actions
AMRAction
p1068
(dp1069
g8
I3
sg9
Nsg10
Nsg11
Nsg13
Nsg15
g62
sba(iamr_util.Actions
AMRAction
p1070
(dp1071
g8
I3
sg9
Nsg10
Nsg11
Nsg13
Nsg15
g62
sba(iamr_util.Actions
AMRAction
p1072
(dp1073
g8
I0
sg9
Nsg10
Nsg11
g278
sg13
S'COREF_i_0'
p1074
sg15
g16
sba(iamr_util.Actions
AMRAction
p1075
(dp1076
g8
I3
sg9
Nsg10
Nsg11
Nsg13
Nsg15
g62
sba(iamr_util.Actions
AMRAction
p1077
(dp1078
g8
I0
sg9
Nsg10
Nsg11
S'like-02'
p1079
sg13
g476
sg15
g16
sba(iamr_util.Actions
AMRAction
p1080
(dp1081
g8
I1
sg9
Nsg10
Nsg11
S'ARG0'
p1082
sg13
Nsg15
g28
sba(iamr_util.Actions
AMRAction
p1083
(dp1084
g8
I3
sg9
Nsg10
Nsg11
Nsg13
Nsg15
g62
sba(iamr_util.Actions
AMRAction
p1085
(dp1086
g8
I0
sg9
Nsg10
Nsg11
S'come-01'
p1087
sg13
S'COREF_c_0'
p1088
sg15
g16
sba(iamr_util.Actions
AMRAction
p1089
(dp1090
g8
I2
sg9
Nsg10
Nsg11
S'ARG1'
p1091
sg13
Nsg15
g59
sba(iamr_util.Actions
AMRAction
p1092
(dp1093
g8
I3
sg9
Nsg10
Nsg11
Nsg13
Nsg15
g62
sba(iamr_util.Actions
AMRAction
p1094
(dp1095
g8
I3
sg9
Nsg10
Nsg11
Nsg13
Nsg15
g62
sba(iamr_util.Actions
AMRAction
p1096
(dp1097
g8
I0
sg9
Nsg10
Nsg11
S'possible-01'
p1098
sg13
g307
sg15
g16
sba(iamr_util.Actions
AMRAction
p1099
(dp1100
g8
I1
sg9
Nsg10
Nsg11
S'concession'
p1101
sg13
Nsg15
g28
sba(iamr_util.Actions
AMRAction
p1102
(dp1103
g8
I0
sg9
Nsg10
Nsg11
g1
(g397
g398
g399
tp1104
Rp1105
sg13
g1105
sg15
g16
sba(iamr_util.Actions
AMRAction
p1106
(dp1107
g8
I2
sg9
Nsg10
Nsg11
S'polarity'
p1108
sg13
Nsg15
g59
sba(iamr_util.Actions
AMRAction
p1109
(dp1110
g8
I3
sg9
Nsg10
Nsg11
Nsg13
Nsg15
g62
sbaS'(p / possible-01~e.10 :polarity~e.11 -~e.11\n      :ARG1 (c / come-01\n            :ARG1 (i / i))\n      :concession (l / like-02~e.5\n            :ARG0 (COREF_i_0 / i~e.3)\n            :ARG1~e.6 (COREF_c_0 / come-01~e.7,8,9)))'
p1111
(dp1112
(lp1113
(lp1114
(dp1115
I1
tp1116
tp1117
Rp1118
ag1
(g2
g3
(S'Her fingernails are as long as her fingers .'
p1119
(lp1120
(iamr_util.Actions
AMRAction
p1121
(dp1122
g8
I0
sg9
Nsg10
Nsg11
S'she'
p1123
sg13
g131
sg15
g16
sba(iamr_util.Actions
AMRAction
p1124
(dp1125
g8
I0
sg9
Nsg10
Nsg11
S'fingernail'
p1126
sg13
g253
sg15
g16
sba(iamr_util.Actions
AMRAction
p1127
(dp1128
g8
I1
sg9
Nsg10
Nsg11
S'part-of'
p1129
sg13
Nsg15
g28
sba(iamr_util.Actions
AMRAction
p1130
(dp1131
g8
I3
sg9
Nsg10
Nsg11
Nsg13
Nsg15
g62
sba(iamr_util.Actions
AMRAction
p1132
(dp1133
g8
I3
sg9
Nsg10
Nsg11
Nsg13
Nsg15
g62
sba(iamr_util.Actions
AMRAction
p1134
(dp1135
g8
I0
sg9
Nsg10
Nsg11
S'long-03'
p1136
sg13
g476
sg15
g16
sba(iamr_util.Actions
AMRAction
p1137
(dp1138
g8
I1
sg9
Nsg10
Nsg11
S'ARG1'
p1139
sg13
Nsg15
g28
sba(iamr_util.Actions
AMRAction
p1140
(dp1141
g8
I3
sg9
Nsg10
Nsg11
Nsg13
Nsg15
g62
sba(iamr_util.Actions
AMRAction
p1142
(dp1143
g8
I0
sg9
Nsg10
Nsg11
S'she'
p1144
sg13
S'COREF_s_0'
p1145
sg15
g16
sba(iamr_util.Actions
AMRAction
p1146
(dp1147
g8
I0
sg9
Nsg10
Nsg11
S'finger'
p1148
sg13
S'f2'
p1149
sg15
g16
sba(iamr_util.Actions
AMRAction
p1150
(dp1151
g8
I1
sg9
Nsg10
Nsg11
S'part-of'
p1152
sg13
Nsg15
g28
sba(iamr_util.Actions
AMRAction
p1153
(dp1154
g8
I2
sg9
Nsg10
Nsg11
S'compared-to'
p1155
sg13
Nsg15
g59
sba(iamr_util.Actions
AMRAction
p1156
(dp1157
g8
I3
sg9
Nsg10
Nsg11
Nsg13
Nsg15
g62
sbaS'(l / long-03~e.4\n      :ARG1 (f / fingernail~e.1\n            :part-of~e.0 (s / she~e.0))\n      :degree (e / equal)\n      :compared-to~e.5 (f2 / finger~e.7\n            :part-of~e.6 (COREF_s_0 / she~e.6)))'
p1158
(dp1159
(lp1160
(lp1161
(dp1162
I1
tp1163
tp1164
Rp1165
ag1
(g2
g3
(S'He damaged his own car .'
p1166
(lp1167
(iamr_util.Actions
AMRAction
p1168
(dp1169
g8
I0
sg9
Nsg10
Nsg11
S'he'
p1170
sg13
g192
sg15
g16
sba(iamr_util.Actions
AMRAction
p1171
(dp1172
g8
I0
sg9
Nsg10
Nsg11
S'damage-01'
p1173
sg13
g20
sg15
g16
sba(iamr_util.Actions
AMRAction
p1174
(dp1175
g8
I1
sg9
Nsg10
Nsg11
S'ARG0'
p1176
sg13
Nsg15
g28
sba(iamr_util.Actions
AMRAction
p1177
(dp1178
g8
I0
sg9
Nsg10
Nsg11
S'he'
p1179
sg13
S'COREF_h_0'
p1180
sg15
g16
sba(iamr_util.Actions
AMRAction
p1181
(dp1182
g8
I3
sg9
Nsg10
Nsg11
Nsg13
Nsg15
g62
sba(iamr_util.Actions
AMRAction
p1183
(dp1184
g8
I0
sg9
Nsg10
Nsg11
S'car'
p1185
sg13
g38
sg15
g16
sba(iamr_util.Actions
AMRAction
p1186
(dp1187
g8
I1
sg9
Nsg10
Nsg11
S'poss'
p1188
sg13
Nsg15
g28
sba(iamr_util.Actions
AMRAction
p1189
(dp1190
g8
I2
sg9
Nsg10
Nsg11
S'ARG1'
p1191
sg13
Nsg15
g59
sba(iamr_util.Actions
AMRAction
p1192
(dp1193
g8
I3
sg9
Nsg10
Nsg11
Nsg13
Nsg15
g62
sbaS'(d / damage-01~e.1\n      :ARG0 (h / he~e.0)\n      :ARG1 (c / car~e.4\n            :poss~e.2 (COREF_h_0 / he~e.2)))'
p1194
(dp1195
(lp1196
(lp1197
(dp1198
I1
tp1199
tp1200
Rp1201
ag1
(g2
g3
(S'Oswald went through with his plan .'
p1202
(lp1203
(iamr_util.Actions
AMRAction
p1204
(dp1205
g8
I3
sg9
Nsg10
Nsg11
Nsg13
Nsg15
g62
sba(iamr_util.Actions
AMRAction
p1206
(dp1207
g8
I0
sg9
Nsg10
Nsg11
S'go-through-20'
p1208
sg13
g91
sg15
g16
sba(iamr_util.Actions
AMRAction
p1209
(dp1210
g8
I3
sg9
Nsg10
Nsg11
Nsg13
Nsg15
g62
sba(iamr_util.Actions
AMRAction
p1211
(dp1212
g8
I3
sg9
Nsg10
Nsg11
Nsg13
Nsg15
g62
sba(iamr_util.Actions
AMRAction
p1213
(dp1214
g8
I0
sg9
Nsg10
Nsg11
S'person'
p1215
sg13
S'COREF_p_0'
p1216
sg15
g16
sba(iamr_util.Actions
AMRAction
p1217
(dp1218
g8
I0
sg9
Nsg10
Nsg11
S'plan'
p1219
sg13
S'p2'
p1220
sg15
g16
sba(iamr_util.Actions
AMRAction
p1221
(dp1222
g8
I1
sg9
Nsg10
Nsg11
S'poss'
p1223
sg13
Nsg15
g28
sba(iamr_util.Actions
AMRAction
p1224
(dp1225
g8
I2
sg9
Nsg10
Nsg11
S'ARG1'
p1226
sg13
Nsg15
g59
sba(iamr_util.Actions
AMRAction
p1227
(dp1228
g8
I3
sg9
Nsg10
Nsg11
Nsg13
Nsg15
g62
sbaS'(g / go-through-20~e.1,2\n      :ARG0 (p / person)\n      :ARG1~e.3 (p2 / plan~e.5\n            :poss~e.4 (COREF_p_0 / person~e.4)))'
p1229
(dp1230
(lp1231
(lp1232
(dp1233
I1
tp1234
tp1235
Rp1236
a.