(lp0
ccopy_reg
_reconstructor
p1
(cTrainingDataExtractor
TrainingData
p2
c__builtin__
tuple
p3
(S'For temporal-quantity , Disney has constantly maintained its mystery .'
p4
(lp5
(iamr_util.Actions
AMRAction
p6
(dp7
S'index'
p8
I3
sS'key2'
p9
NsS'label2'
p10
NsS'label'
p11
NsS'key'
p12
NsS'action'
p13
S'DN'
p14
sba(iamr_util.Actions
AMRAction
p15
(dp16
g8
I0
sg9
Nsg10
Nsg11
S'temporal-quantity'
p17
sg12
S't2'
p18
sg13
S'SH'
p19
sba(iamr_util.Actions
AMRAction
p20
(dp21
g8
I3
sg9
Nsg10
Nsg11
Nsg12
Nsg13
g14
sba(iamr_util.Actions
AMRAction
p22
(dp23
g8
I3
sg9
Nsg10
Nsg11
Nsg12
Nsg13
g14
sba(iamr_util.Actions
AMRAction
p24
(dp25
g8
I3
sg9
Nsg10
Nsg11
Nsg12
Nsg13
g14
sba(iamr_util.Actions
AMRAction
p26
(dp27
g8
I0
sg9
Nsg10
Nsg11
S'constant'
p28
sg12
S'c2'
p29
sg13
g19
sba(iamr_util.Actions
AMRAction
p30
(dp31
g8
I0
sg9
Nsg10
Nsg11
S'maintain-01'
p32
sg12
S'm'
p33
sg13
g19
sba(iamr_util.Actions
AMRAction
p34
(dp35
g8
I1
sg9
Nsg10
Nsg11
S'manner'
p36
sg12
Nsg13
S'RL'
p37
sba(iamr_util.Actions
AMRAction
p38
(dp39
g8
I1
sg9
Nsg10
Nsg11
S'duration'
p40
sg12
Nsg13
g37
sba(iamr_util.Actions
AMRAction
p41
(dp42
g8
I0
sg9
Nsg10
Nsg11
S'company'
p43
sg12
S'COREF_c_0'
p44
sg13
g19
sba(iamr_util.Actions
AMRAction
p45
(dp46
g8
I0
sg9
Nsg10
Nsg11
S'mystery'
p47
sg12
S'm2'
p48
sg13
g19
sba(iamr_util.Actions
AMRAction
p49
(dp50
g8
I1
sg9
Nsg10
Nsg11
S'poss'
p51
sg12
Nsg13
g37
sba(iamr_util.Actions
AMRAction
p52
(dp53
g8
I2
sg9
Nsg10
Nsg11
S'ARG1'
p54
sg12
Nsg13
S'RR'
p55
sba(iamr_util.Actions
AMRAction
p56
(dp57
g8
I3
sg9
Nsg10
Nsg11
Nsg12
Nsg13
g14
sbaS'(m / maintain-01~e.7\n      :ARG0 (c / company)\n      :ARG1 (m2 / mystery~e.9\n            :poss~e.8 (COREF_c_0 / company~e.8))\n      :duration (t2 / temporal-quantity :quant 2~e.1\n            :unit (y2 / year~e.2))\n      :manner~e.6 (c2 / constant~e.6))'
p58
(dp59
(lp60
(lp61
(dp62
I1
tp63
tp64
Rp65
ag1
(g2
g3
(S'here , you can come up close with the stars in your mind .'
p66
(lp67
(iamr_util.Actions
AMRAction
p68
(dp69
g8
I0
sg9
Nsg10
Nsg11
S'here'
p70
sg12
S'h'
p71
sg13
g19
sba(iamr_util.Actions
AMRAction
p72
(dp73
g8
I3
sg9
Nsg10
Nsg11
Nsg12
Nsg13
g14
sba(iamr_util.Actions
AMRAction
p74
(dp75
g8
I0
sg9
Nsg10
Nsg11
S'you'
p76
sg12
S'y'
p77
sg13
g19
sba(iamr_util.Actions
AMRAction
p78
(dp79
g8
I0
sg9
Nsg10
Nsg11
S'possible-01'
p80
sg12
S'p'
p81
sg13
g19
sba(iamr_util.Actions
AMRAction
p82
(dp83
g8
I4
sg9
Nsg10
Nsg11
Nsg12
Nsg13
S'SW'
p84
sba(iamr_util.Actions
AMRAction
p85
(dp86
g8
I1
sg9
Nsg10
Nsg11
S'location'
p87
sg12
Nsg13
g37
sba(iamr_util.Actions
AMRAction
p88
(dp89
g8
I3
sg9
Nsg10
Nsg11
Nsg12
Nsg13
g14
sba(iamr_util.Actions
AMRAction
p90
(dp91
g8
I3
sg9
Nsg10
Nsg11
Nsg12
Nsg13
g14
sba(iamr_util.Actions
AMRAction
p92
(dp93
g8
I0
sg9
Nsg10
Nsg11
S'close-06'
p94
sg12
S'c'
p95
sg13
g19
sba(iamr_util.Actions
AMRAction
p96
(dp97
g8
I4
sg9
Nsg10
Nsg11
Nsg12
Nsg13
g84
sba(iamr_util.Actions
AMRAction
p98
(dp99
g8
I1
sg9
Nsg10
Nsg11
S'ARG1'
p100
sg12
Nsg13
g37
sba(iamr_util.Actions
AMRAction
p101
(dp102
g8
I3
sg9
Nsg10
Nsg11
Nsg12
Nsg13
g14
sba(iamr_util.Actions
AMRAction
p103
(dp104
g8
I3
sg9
Nsg10
Nsg11
Nsg12
Nsg13
g14
sba(iamr_util.Actions
AMRAction
p105
(dp106
g8
I0
sg9
Nsg10
Nsg11
S'star'
p107
sg12
S's'
p108
sg13
g19
sba(iamr_util.Actions
AMRAction
p109
(dp110
g8
I3
sg9
Nsg10
Nsg11
Nsg12
Nsg13
g14
sba(iamr_util.Actions
AMRAction
p111
(dp112
g8
I0
sg9
Nsg10
Nsg11
S'you'
p113
sg12
S'COREF_y_0'
p114
sg13
g19
sba(iamr_util.Actions
AMRAction
p115
(dp116
g8
I0
sg9
Nsg10
Nsg11
S'mind'
p117
sg12
g33
sg13
g19
sba(iamr_util.Actions
AMRAction
p118
(dp119
g8
I1
sg9
Nsg10
Nsg11
S'poss'
p120
sg12
Nsg13
g37
sba(iamr_util.Actions
AMRAction
p121
(dp122
g8
I2
sg9
Nsg10
Nsg11
S'location'
p123
sg12
Nsg13
g55
sba(iamr_util.Actions
AMRAction
p124
(dp125
g8
I2
sg9
Nsg10
Nsg11
S'ARG2'
p126
sg12
Nsg13
g55
sba(iamr_util.Actions
AMRAction
p127
(dp128
g8
I2
sg9
Nsg10
Nsg11
S'ARG1'
p129
sg12
Nsg13
g55
sba(iamr_util.Actions
AMRAction
p130
(dp131
g8
I3
sg9
Nsg10
Nsg11
Nsg12
Nsg13
g14
sbaS'(p / possible-01~e.3\n      :ARG1 (c / close-06~e.6\n            :ARG1 (y / you~e.2)\n            :ARG2~e.7 (s / star~e.9\n                  :location~e.10 (m / mind~e.12\n                        :poss~e.11 (COREF_y_0 / you~e.11))))\n      :location (h / here~e.0))'
p132
(dp133
(lp134
(lp135
(dp136
I1
tp137
tp138
Rp139
ag1
(g2
g3
(S'In Chinese Buddhism , there are five directions - east , west , south , north , and center - and five Buddhas .'
p140
(lp141
(iamr_util.Actions
AMRAction
p142
(dp143
g8
I3
sg9
Nsg10
Nsg11
Nsg12
Nsg13
g14
sba(iamr_util.Actions
AMRAction
p144
(dp145
g8
I3
sg9
Nsg10
Nsg11
Nsg12
Nsg13
g14
sba(iamr_util.Actions
AMRAction
p146
(dp147
g8
I3
sg9
Nsg10
Nsg11
Nsg12
Nsg13
g14
sba(iamr_util.Actions
AMRAction
p148
(dp149
g8
I3
sg9
Nsg10
Nsg11
Nsg12
Nsg13
g14
sba(iamr_util.Actions
AMRAction
p150
(dp151
g8
I3
sg9
Nsg10
Nsg11
Nsg12
Nsg13
g14
sba(iamr_util.Actions
AMRAction
p152
(dp153
g8
I3
sg9
Nsg10
Nsg11
Nsg12
Nsg13
g14
sba(iamr_util.Actions
AMRAction
p154
(dp155
g8
I3
sg9
Nsg10
Nsg11
Nsg12
Nsg13
g14
sba(iamr_util.Actions
AMRAction
p156
(dp157
g8
I0
sg9
Nsg10
Nsg11
S'direction'
p158
sg12
S'd'
p159
sg13
g19
sba(iamr_util.Actions
AMRAction
p160
(dp161
g8
I3
sg9
Nsg10
Nsg11
Nsg12
Nsg13
g14
sba(iamr_util.Actions
AMRAction
p162
(dp163
g8
I0
sg9
Nsg10
Nsg11
S'east'
p164
sg12
S'e'
p165
sg13
g19
sba(iamr_util.Actions
AMRAction
p166
(dp167
g8
I3
sg9
Nsg10
Nsg11
Nsg12
Nsg13
g14
sba(iamr_util.Actions
AMRAction
p168
(dp169
g8
I0
sg9
Nsg10
Nsg11
S'west'
p170
sg12
S'w'
p171
sg13
g19
sba(iamr_util.Actions
AMRAction
p172
(dp173
g8
I3
sg9
Nsg10
Nsg11
Nsg12
Nsg13
g14
sba(iamr_util.Actions
AMRAction
p174
(dp175
g8
I0
sg9
Nsg10
Nsg11
S'south'
p176
sg12
g108
sg13
g19
sba(iamr_util.Actions
AMRAction
p177
(dp178
g8
I3
sg9
Nsg10
Nsg11
Nsg12
Nsg13
g14
sba(iamr_util.Actions
AMRAction
p179
(dp180
g8
I0
sg9
Nsg10
Nsg11
S'north'
p181
sg12
S'n2'
p182
sg13
g19
sba(iamr_util.Actions
AMRAction
p183
(dp184
g8
I3
sg9
Nsg10
Nsg11
Nsg12
Nsg13
g14
sba(iamr_util.Actions
AMRAction
p185
(dp186
g8
I0
sg9
Nsg10
Nsg11
S'and'
p187
sg12
S'a2'
p188
sg13
g19
sba(iamr_util.Actions
AMRAction
p189
(dp190
g8
I1
sg9
Nsg10
Nsg11
S'op4'
p191
sg12
Nsg13
g37
sba(iamr_util.Actions
AMRAction
p192
(dp193
g8
I1
sg9
Nsg10
Nsg11
S'op3'
p194
sg12
Nsg13
g37
sba(iamr_util.Actions
AMRAction
p195
(dp196
g8
I1
sg9
Nsg10
Nsg11
S'op2'
p197
sg12
Nsg13
g37
sba(iamr_util.Actions
AMRAction
p198
(dp199
g8
I1
sg9
Nsg10
Nsg11
S'op1'
p200
sg12
Nsg13
g37
sba(iamr_util.Actions
AMRAction
p201
(dp202
g8
I0
sg9
Nsg10
Nsg11
S'center'
p203
sg12
S'c3'
p204
sg13
g19
sba(iamr_util.Actions
AMRAction
p205
(dp206
g8
I2
sg9
Nsg10
Nsg11
S'op5'
p207
sg12
Nsg13
g55
sba(iamr_util.Actions
AMRAction
p208
(dp209
g8
I2
sg9
Nsg10
Nsg11
S'domain'
p210
sg12
Nsg13
g55
sba(iamr_util.Actions
AMRAction
p211
(dp212
g8
I3
sg9
Nsg10
Nsg11
Nsg12
Nsg13
g14
sba(iamr_util.Actions
AMRAction
p213
(dp214
g8
I3
sg9
Nsg10
Nsg11
Nsg12
Nsg13
g14
sba(iamr_util.Actions
AMRAction
p215
(dp216
g8
I3
sg9
Nsg10
Nsg11
Nsg12
Nsg13
g14
sba(iamr_util.Actions
AMRAction
p217
(dp218
g8
I3
sg9
Nsg10
Nsg11
Nsg12
Nsg13
g14
sba(iamr_util.Actions
AMRAction
p219
(dp220
g8
I3
sg9
Nsg10
Nsg11
Nsg12
Nsg13
g14
sbaS'(h / have-03\n      :ARG0 (r / religious-group\n            :mod (c4 / country))\n      :ARG1 (a / and\n            :op1 (d / direction~e.7 :quant 5~e.6,21\n                  :domain~e.5 (a2 / and~e.17,20\n                        :op1 (e / east~e.9)\n                        :op2 (w / west~e.11)\n                        :op3 (s / south~e.13)\n                        :op4 (n2 / north~e.15)\n                        :op5 (c3 / center~e.18)))\n            :op2 (p / person :quant 5~e.21)))'
p221
(dp222
(lp223
(lp224
(dp225
I1
tp226
tp227
Rp228
a.