(lp0
ccopy_reg
_reconstructor
p1
(cTrainingDataExtractor
TrainingData
p2
c__builtin__
tuple
p3
(S"Where 's Homer Simpson when you need him ?"
p4
(lp5
(iamr_util.Actions
AMRAction
p6
(dp7
S'index'
p8
I0
sS'key2'
p9
NsS'label2'
p10
NsS'label'
p11
S'amr-unknown'
p12
sS'key'
p13
S'a'
p14
sS'action'
p15
S'SH'
p16
sba(iamr_util.Actions
AMRAction
p17
(dp18
g8
I0
sg9
Nsg10
Nsg11
S'be-located-at-91'
p19
sg13
S'b'
p20
sg15
g16
sba(iamr_util.Actions
AMRAction
p21
(dp22
g8
I1
sg9
Nsg10
Nsg11
S'ARG2'
p23
sg13
Nsg15
S'RL'
p24
sba(iamr_util.Actions
AMRAction
p25
(dp26
g8
I3
sg9
Nsg10
Nsg11
Nsg13
Nsg15
S'DN'
p27
sba(iamr_util.Actions
AMRAction
p28
(dp29
g8
I3
sg9
Nsg10
Nsg11
Nsg13
Nsg15
g27
sba(iamr_util.Actions
AMRAction
p30
(dp31
g8
I3
sg9
Nsg10
Nsg11
Nsg13
Nsg15
g27
sba(iamr_util.Actions
AMRAction
p32
(dp33
g8
I0
sg9
Nsg10
Nsg11
S'you'
p34
sg13
S'y'
p35
sg15
g16
sba(iamr_util.Actions
AMRAction
p36
(dp37
g8
I0
sg9
Nsg10
Nsg11
S'need-01'
p38
sg13
S'n'
p39
sg15
g16
sba(iamr_util.Actions
AMRAction
p40
(dp41
g8
I1
sg9
Nsg10
Nsg11
S'ARG0'
p42
sg13
Nsg15
g24
sba(iamr_util.Actions
AMRAction
p43
(dp44
g8
I0
sg9
Nsg10
Nsg11
S'person'
p45
sg13
S'COREF_p_0'
p46
sg15
g16
sba(iamr_util.Actions
AMRAction
p47
(dp48
g8
I2
sg9
Nsg10
Nsg11
S'ARG1'
p49
sg13
Nsg15
S'RR'
p50
sba(iamr_util.Actions
AMRAction
p51
(dp52
g8
I2
sg9
Nsg10
Nsg11
S'time'
p53
sg13
Nsg15
g50
sba(iamr_util.Actions
AMRAction
p54
(dp55
g8
I3
sg9
Nsg10
Nsg11
Nsg13
Nsg15
g27
sbaS'(b / be-located-at-91~e.1\n      :ARG1 (p / person)\n      :ARG2 (a / amr-unknown~e.0)\n      :time~e.4 (n / need-01~e.6\n            :ARG0 (y / you~e.5)\n            :ARG1 (COREF_p_0 / person~e.7)))'
p56
(dp57
(lp58
(lp59
(dp60
I1
tp61
tp62
Rp63
ag1
(g2
g3
(S'As we predicted , Route 288 is generating residential development in scarcely populated areas all around its exits , overtaxing the local country roads .'
p64
(lp65
(iamr_util.Actions
AMRAction
p66
(dp67
g8
I3
sg9
Nsg10
Nsg11
Nsg13
Nsg15
g27
sba(iamr_util.Actions
AMRAction
p68
(dp69
g8
I0
sg9
Nsg10
Nsg11
S'we'
p70
sg13
S'w'
p71
sg15
g16
sba(iamr_util.Actions
AMRAction
p72
(dp73
g8
I0
sg9
Nsg10
Nsg11
S'predict-01'
p74
sg13
S'p'
p75
sg15
g16
sba(iamr_util.Actions
AMRAction
p76
(dp77
g8
I1
sg9
Nsg10
Nsg11
S'ARG0'
p78
sg13
Nsg15
g24
sba(iamr_util.Actions
AMRAction
p79
(dp80
g8
I3
sg9
Nsg10
Nsg11
Nsg13
Nsg15
g27
sba(iamr_util.Actions
AMRAction
p81
(dp82
g8
I3
sg9
Nsg10
Nsg11
Nsg13
Nsg15
g27
sba(iamr_util.Actions
AMRAction
p83
(dp84
g8
I3
sg9
Nsg10
Nsg11
Nsg13
Nsg15
g27
sba(iamr_util.Actions
AMRAction
p85
(dp86
g8
I3
sg9
Nsg10
Nsg11
Nsg13
Nsg15
g27
sba(iamr_util.Actions
AMRAction
p87
(dp88
g8
I0
sg9
Nsg10
Nsg11
S'generate-01'
p89
sg13
S'g'
p90
sg15
g16
sba(iamr_util.Actions
AMRAction
p91
(dp92
g8
I1
sg9
Nsg10
Nsg11
S'ARG1-of'
p93
sg13
Nsg15
g24
sba(iamr_util.Actions
AMRAction
p94
(dp95
g8
I0
sg9
Nsg10
Nsg11
S'residence'
p96
sg13
S'r3'
p97
sg15
g16
sba(iamr_util.Actions
AMRAction
p98
(dp99
g8
I0
sg9
Nsg10
Nsg11
S'develop-02'
p100
sg13
S'd'
p101
sg15
g16
sba(iamr_util.Actions
AMRAction
p102
(dp103
g8
I1
sg9
Nsg10
Nsg11
S'ARG1'
p104
sg13
Nsg15
g24
sba(iamr_util.Actions
AMRAction
p105
(dp106
g8
I3
sg9
Nsg10
Nsg11
Nsg13
Nsg15
g27
sba(iamr_util.Actions
AMRAction
p107
(dp108
g8
I0
sg9
Nsg10
Nsg11
S'scarce'
p109
sg13
S's'
p110
sg15
g16
sba(iamr_util.Actions
AMRAction
p111
(dp112
g8
I0
sg9
Nsg10
Nsg11
S'populate-01'
p113
sg13
S'p2'
p114
sg15
g16
sba(iamr_util.Actions
AMRAction
p115
(dp116
g8
I1
sg9
Nsg10
Nsg11
S'mod'
p117
sg13
Nsg15
g24
sba(iamr_util.Actions
AMRAction
p118
(dp119
g8
I0
sg9
Nsg10
Nsg11
S'area'
p120
sg13
g14
sg15
g16
sba(iamr_util.Actions
AMRAction
p121
(dp122
g8
I1
sg9
Nsg10
Nsg11
S'ARG1-of'
p123
sg13
Nsg15
g24
sba(iamr_util.Actions
AMRAction
p124
(dp125
g8
I0
sg9
Nsg10
Nsg11
S'all'
p126
sg13
S'a3'
p127
sg15
g16
sba(iamr_util.Actions
AMRAction
p128
(dp129
g8
I0
sg9
Nsg10
Nsg11
S'around'
p130
sg13
S'a2'
p131
sg15
g16
sba(iamr_util.Actions
AMRAction
p132
(dp133
g8
I1
sg9
Nsg10
Nsg11
S'mod'
p134
sg13
Nsg15
g24
sba(iamr_util.Actions
AMRAction
p135
(dp136
g8
I0
sg9
Nsg10
Nsg11
S'road'
p137
sg13
S'COREF_r2_0'
p138
sg15
g16
sba(iamr_util.Actions
AMRAction
p139
(dp140
g8
I0
sg9
Nsg10
Nsg11
S'exit'
p141
sg13
S'e'
p142
sg15
g16
sba(iamr_util.Actions
AMRAction
p143
(dp144
g8
I1
sg9
Nsg10
Nsg11
S'part-of'
p145
sg13
Nsg15
g24
sba(iamr_util.Actions
AMRAction
p146
(dp147
g8
I2
sg9
Nsg10
Nsg11
S'op1'
p148
sg13
Nsg15
g50
sba(iamr_util.Actions
AMRAction
p149
(dp150
g8
I2
sg9
Nsg10
Nsg11
S'location'
p151
sg13
Nsg15
g50
sba(iamr_util.Actions
AMRAction
p152
(dp153
g8
I2
sg9
Nsg10
Nsg11
S'location'
p154
sg13
Nsg15
g50
sba(iamr_util.Actions
AMRAction
p155
(dp156
g8
I3
sg9
Nsg10
Nsg11
Nsg13
Nsg15
g27
sba(iamr_util.Actions
AMRAction
p157
(dp158
g8
I0
sg9
Nsg10
Nsg11
S'overtax-01'
p159
sg13
S'o'
p160
sg15
g16
sba(iamr_util.Actions
AMRAction
p161
(dp162
g8
I3
sg9
Nsg10
Nsg11
Nsg13
Nsg15
g27
sba(iamr_util.Actions
AMRAction
p163
(dp164
g8
I0
sg9
Nsg10
Nsg11
S'local-02'
p165
sg13
S'l'
p166
sg15
g16
sba(iamr_util.Actions
AMRAction
p167
(dp168
g8
I0
sg9
Nsg10
Nsg11
S'country'
p169
sg13
S'c2'
p170
sg15
g16
sba(iamr_util.Actions
AMRAction
p171
(dp172
g8
I2
sg9
Nsg10
Nsg11
S'ARG2'
p173
sg13
Nsg15
g50
sba(iamr_util.Actions
AMRAction
p174
(dp175
g8
I0
sg9
Nsg10
Nsg11
S'road'
p176
sg13
S'r4'
p177
sg15
g16
sba(iamr_util.Actions
AMRAction
p178
(dp179
g8
I1
sg9
Nsg10
Nsg11
S'ARG1-of'
p180
sg13
Nsg15
g24
sba(iamr_util.Actions
AMRAction
p181
(dp182
g8
I2
sg9
Nsg10
Nsg11
S'ARG2'
p183
sg13
Nsg15
g50
sba(iamr_util.Actions
AMRAction
p184
(dp185
g8
I2
sg9
Nsg10
Nsg11
S'ARG0-of'
p186
sg13
Nsg15
g50
sba(iamr_util.Actions
AMRAction
p187
(dp188
g8
I2
sg9
Nsg10
Nsg11
S'ARG1'
p189
sg13
Nsg15
g50
sba(iamr_util.Actions
AMRAction
p190
(dp191
g8
I3
sg9
Nsg10
Nsg11
Nsg13
Nsg15
g27
sbaS'(g / generate-01~e.7\n      :ARG0 (r2 / road)\n      :ARG1 (d / develop-02~e.9\n            :ARG1 (r3 / residence~e.8)\n            :location~e.10 (a / area~e.13\n                  :ARG1-of (p2 / populate-01~e.12\n                        :mod (s / scarce~e.11))\n                  :location (a2 / around~e.15\n                        :op1 (e / exit~e.17\n                              :part-of~e.16 (COREF_r2_0 / road~e.16))\n                        :mod (a3 / all~e.14)))\n            :ARG0-of (o / overtax-01~e.19\n                  :ARG2 (r4 / road~e.23\n                        :ARG1-of (l / local-02~e.21\n                              :ARG2 (c2 / country~e.22)))))\n      :ARG1-of (p / predict-01~e.2\n            :ARG0 (w / we~e.1)))'
p192
(dp193
(lp194
(lp195
(dp196
I1
tp197
tp198
Rp199
ag1
(g2
g3
(S'I think they are so tightly intertwined that they are virtually one and the same .'
p200
(lp201
(iamr_util.Actions
AMRAction
p202
(dp203
g8
I0
sg9
Nsg10
Nsg11
S'i'
p204
sg13
g204
sg15
g16
sba(iamr_util.Actions
AMRAction
p205
(dp206
g8
I0
sg9
Nsg10
Nsg11
S'think-01'
p207
sg13
S't'
p208
sg15
g16
sba(iamr_util.Actions
AMRAction
p209
(dp210
g8
I1
sg9
Nsg10
Nsg11
S'ARG0'
p211
sg13
Nsg15
g24
sba(iamr_util.Actions
AMRAction
p212
(dp213
g8
I0
sg9
Nsg10
Nsg11
S'they'
p214
sg13
S't2'
p215
sg15
g16
sba(iamr_util.Actions
AMRAction
p216
(dp217
g8
I3
sg9
Nsg10
Nsg11
Nsg13
Nsg15
g27
sba(iamr_util.Actions
AMRAction
p218
(dp219
g8
I0
sg9
Nsg10
Nsg11
S'cause-01'
p220
sg13
S'c'
p221
sg15
g16
sba(iamr_util.Actions
AMRAction
p222
(dp223
g8
I0
sg9
Nsg10
Nsg11
S'tight-05'
p224
sg13
S't3'
p225
sg15
g16
sba(iamr_util.Actions
AMRAction
p226
(dp227
g8
I0
sg9
Nsg10
Nsg11
S'intertwine-01'
p228
sg13
S'i2'
p229
sg15
g16
sba(iamr_util.Actions
AMRAction
p230
(dp231
g8
I1
sg9
Nsg10
Nsg11
S'ARG0-of'
p232
sg13
Nsg15
g24
sba(iamr_util.Actions
AMRAction
p233
(dp234
g8
I4
sg9
Nsg10
Nsg11
Nsg13
Nsg15
S'SW'
p235
sba(iamr_util.Actions
AMRAction
p236
(dp237
g8
I1
sg9
Nsg10
Nsg11
S'ARG1'
p238
sg13
Nsg15
g24
sba(iamr_util.Actions
AMRAction
p239
(dp240
g8
I3
sg9
Nsg10
Nsg11
Nsg13
Nsg15
g27
sba(iamr_util.Actions
AMRAction
p241
(dp242
g8
I0
sg9
Nsg10
Nsg11
S'they'
p243
sg13
S'COREF_t2_0'
p244
sg15
g16
sba(iamr_util.Actions
AMRAction
p245
(dp246
g8
I3
sg9
Nsg10
Nsg11
Nsg13
Nsg15
g27
sba(iamr_util.Actions
AMRAction
p247
(dp248
g8
I0
sg9
Nsg10
Nsg11
S'virtual'
p249
sg13
S'v'
p250
sg15
g16
sba(iamr_util.Actions
AMRAction
p251
(dp252
g8
I3
sg9
Nsg10
Nsg11
Nsg13
Nsg15
g27
sba(iamr_util.Actions
AMRAction
p253
(dp254
g8
I3
sg9
Nsg10
Nsg11
Nsg13
Nsg15
g27
sba(iamr_util.Actions
AMRAction
p255
(dp256
g8
I3
sg9
Nsg10
Nsg11
Nsg13
Nsg15
g27
sba(iamr_util.Actions
AMRAction
p257
(dp258
g8
I0
sg9
Nsg10
Nsg11
S'same-01'
p259
sg13
g110
sg15
g16
sba(iamr_util.Actions
AMRAction
p260
(dp261
g8
I1
sg9
Nsg10
Nsg11
S'mod'
p262
sg13
Nsg15
g24
sba(iamr_util.Actions
AMRAction
p263
(dp264
g8
I1
sg9
Nsg10
Nsg11
S'ARG1'
p265
sg13
Nsg15
g24
sba(iamr_util.Actions
AMRAction
p266
(dp267
g8
I4
sg9
Nsg10
Nsg11
Nsg13
Nsg15
g235
sba(iamr_util.Actions
AMRAction
p268
(dp269
g8
I2
sg9
Nsg10
Nsg11
S'ARG1'
p270
sg13
Nsg15
g50
sba(iamr_util.Actions
AMRAction
p271
(dp272
g8
I2
sg9
Nsg10
Nsg11
g232
sg13
Nsg15
g50
sba(iamr_util.Actions
AMRAction
p273
(dp274
g8
I2
sg9
Nsg10
Nsg11
S'ARG1'
p275
sg13
Nsg15
g50
sba(iamr_util.Actions
AMRAction
p276
(dp277
g8
I3
sg9
Nsg10
Nsg11
Nsg13
Nsg15
g27
sbaS'(t / think-01~e.1\n      :ARG0 (i / i~e.0)\n      :ARG1 (i2 / intertwine-01~e.6\n            :ARG1 (t2 / they~e.2)\n            :ARG0-of (c / cause-01~e.4\n                  :ARG1~e.7 (s / same-01~e.14\n                        :ARG1 (COREF_t2_0 / they~e.8)\n                        :mod (v / virtual~e.10)))\n            :ARG0-of (t3 / tight-05~e.5)))'
p278
(dp279
(lp280
(lp281
(dp282
I1
tp283
tp284
Rp285
ag1
(g2
g3
(S'I will not work in a downtown area ,'
p286
(lp287
(iamr_util.Actions
AMRAction
p288
(dp289
g8
I0
sg9
Nsg10
Nsg11
g204
sg13
g204
sg15
g16
sba(iamr_util.Actions
AMRAction
p290
(dp291
g8
I3
sg9
Nsg10
Nsg11
Nsg13
Nsg15
g27
sba(iamr_util.Actions
AMRAction
p292
(dp293
g8
I3
sg9
Nsg10
Nsg11
Nsg13
Nsg15
g27
sba(iamr_util.Actions
AMRAction
p294
(dp295
g8
I0
sg9
Nsg10
Nsg11
S'work-01'
p296
sg13
g71
sg15
g16
sba(iamr_util.Actions
AMRAction
p297
(dp298
g8
I1
sg9
Nsg10
Nsg11
S'ARG0'
p299
sg13
Nsg15
g24
sba(iamr_util.Actions
AMRAction
p300
(dp301
g8
I3
sg9
Nsg10
Nsg11
Nsg13
Nsg15
g27
sba(iamr_util.Actions
AMRAction
p302
(dp303
g8
I3
sg9
Nsg10
Nsg11
Nsg13
Nsg15
g27
sba(iamr_util.Actions
AMRAction
p304
(dp305
g8
I0
sg9
Nsg10
Nsg11
S'downtown'
p306
sg13
g101
sg15
g16
sba(iamr_util.Actions
AMRAction
p307
(dp308
g8
I0
sg9
Nsg10
Nsg11
S'area'
p309
sg13
g14
sg15
g16
sba(iamr_util.Actions
AMRAction
p310
(dp311
g8
I1
sg9
Nsg10
Nsg11
S'mod'
p312
sg13
Nsg15
g24
sba(iamr_util.Actions
AMRAction
p313
(dp314
g8
I2
sg9
Nsg10
Nsg11
S'location'
p315
sg13
Nsg15
g50
sba(iamr_util.Actions
AMRAction
p316
(dp317
g8
I3
sg9
Nsg10
Nsg11
Nsg13
Nsg15
g27
sbaS'(r / refuse-01\n      :ARG0 (COREF_i_0 / i)\n      :ARG1 (w / work-01~e.3\n            :ARG0 (i / i~e.0)\n            :location~e.4 (a / area~e.7\n                  :mod (d / downtown~e.6))))'
p318
(dp319
(lp320
(lp321
(dp322
I1
tp323
tp324
Rp325
a.