(lp0
ccopy_reg
_reconstructor
p1
(cTrainingDataExtractor
TrainingData
p2
c__builtin__
tuple
p3
(S"Naif Arab Academy for Security Sciences is run by an Arab Interior Ministers ' Council ."
p4
(lp5
(iamr_util.Actions
AMRAction
p6
(dp7
S'index'
p8
I3
sS'key2'
p9
NsS'label2'
p10
NsS'label'
p11
NsS'key'
p12
NsS'action'
p13
S'DN'
p14
sba(iamr_util.Actions
AMRAction
p15
(dp16
g8
I3
sg9
Nsg10
Nsg11
Nsg12
Nsg13
g14
sba(iamr_util.Actions
AMRAction
p17
(dp18
g8
I3
sg9
Nsg10
Nsg11
Nsg12
Nsg13
g14
sba(iamr_util.Actions
AMRAction
p19
(dp20
g8
I3
sg9
Nsg10
Nsg11
Nsg12
Nsg13
g14
sba(iamr_util.Actions
AMRAction
p21
(dp22
g8
I3
sg9
Nsg10
Nsg11
Nsg12
Nsg13
g14
sba(iamr_util.Actions
AMRAction
p23
(dp24
g8
I3
sg9
Nsg10
Nsg11
Nsg12
Nsg13
g14
sba(iamr_util.Actions
AMRAction
p25
(dp26
g8
I3
sg9
Nsg10
Nsg11
Nsg12
Nsg13
g14
sba(iamr_util.Actions
AMRAction
p27
(dp28
g8
I0
sg9
Nsg10
Nsg11
S'run-01'
p29
sg12
S'r'
p30
sg13
S'SH'
p31
sba(iamr_util.Actions
AMRAction
p32
(dp33
g8
I3
sg9
Nsg10
Nsg11
Nsg12
Nsg13
g14
sba(iamr_util.Actions
AMRAction
p34
(dp35
g8
I3
sg9
Nsg10
Nsg11
Nsg12
Nsg13
g14
sba(iamr_util.Actions
AMRAction
p36
(dp37
g8
I3
sg9
Nsg10
Nsg11
Nsg12
Nsg13
g14
sba(iamr_util.Actions
AMRAction
p38
(dp39
g8
I3
sg9
Nsg10
Nsg11
Nsg12
Nsg13
g14
sba(iamr_util.Actions
AMRAction
p40
(dp41
g8
I3
sg9
Nsg10
Nsg11
Nsg12
Nsg13
g14
sba(iamr_util.Actions
AMRAction
p42
(dp43
g8
I3
sg9
Nsg10
Nsg11
Nsg12
Nsg13
g14
sba(iamr_util.Actions
AMRAction
p44
(dp45
g8
I3
sg9
Nsg10
Nsg11
Nsg12
Nsg13
g14
sba(iamr_util.Actions
AMRAction
p46
(dp47
g8
I3
sg9
Nsg10
Nsg11
Nsg12
Nsg13
g14
sbaS'(r / run-01~e.7\n      :ARG0~e.8 (o / organization)\n      :ARG1 (u / university))'
p48
(dp49
(lp50
(lp51
(dp52
I1
tp53
tp54
Rp55
ag1
(g2
g3
(S'South Koreans are angered by the international pressure on their traditional cuisine .'
p56
(lp57
(iamr_util.Actions
AMRAction
p58
(dp59
g8
I3
sg9
Nsg10
Nsg11
Nsg12
Nsg13
g14
sba(iamr_util.Actions
AMRAction
p60
(dp61
g8
I3
sg9
Nsg10
Nsg11
Nsg12
Nsg13
g14
sba(iamr_util.Actions
AMRAction
p62
(dp63
g8
I3
sg9
Nsg10
Nsg11
Nsg12
Nsg13
g14
sba(iamr_util.Actions
AMRAction
p64
(dp65
g8
I0
sg9
Nsg10
Nsg11
S'anger-01'
p66
sg12
S'a'
p67
sg13
g31
sba(iamr_util.Actions
AMRAction
p68
(dp69
g8
I3
sg9
Nsg10
Nsg11
Nsg12
Nsg13
g14
sba(iamr_util.Actions
AMRAction
p70
(dp71
g8
I3
sg9
Nsg10
Nsg11
Nsg12
Nsg13
g14
sba(iamr_util.Actions
AMRAction
p72
(dp73
g8
I0
sg9
Nsg10
Nsg11
S'international'
p74
sg12
S'i'
p75
sg13
g31
sba(iamr_util.Actions
AMRAction
p76
(dp77
g8
I0
sg9
Nsg10
Nsg11
S'pressure-01'
p78
sg12
S'p2'
p79
sg13
g31
sba(iamr_util.Actions
AMRAction
p80
(dp81
g8
I1
sg9
Nsg10
Nsg11
S'ARG0'
p82
sg12
Nsg13
S'RL'
p83
sba(iamr_util.Actions
AMRAction
p84
(dp85
g8
I3
sg9
Nsg10
Nsg11
Nsg12
Nsg13
g14
sba(iamr_util.Actions
AMRAction
p86
(dp87
g8
I0
sg9
Nsg10
Nsg11
S'person'
p88
sg12
S'COREF_p_0'
p89
sg13
g31
sba(iamr_util.Actions
AMRAction
p90
(dp91
g8
I0
sg9
Nsg10
Nsg11
S'traditional'
p92
sg12
S't'
p93
sg13
g31
sba(iamr_util.Actions
AMRAction
p94
(dp95
g8
I0
sg9
Nsg10
Nsg11
S'cuisine'
p96
sg12
S'c2'
p97
sg13
g31
sba(iamr_util.Actions
AMRAction
p98
(dp99
g8
I1
sg9
Nsg10
Nsg11
S'mod'
p100
sg12
Nsg13
g83
sba(iamr_util.Actions
AMRAction
p101
(dp102
g8
I1
sg9
Nsg10
Nsg11
S'poss'
p103
sg12
Nsg13
g83
sba(iamr_util.Actions
AMRAction
p104
(dp105
g8
I2
sg9
Nsg10
Nsg11
S'ARG1'
p106
sg12
Nsg13
S'RR'
p107
sba(iamr_util.Actions
AMRAction
p108
(dp109
g8
I2
sg9
Nsg10
Nsg11
S'ARG0'
p110
sg12
Nsg13
g107
sba(iamr_util.Actions
AMRAction
p111
(dp112
g8
I3
sg9
Nsg10
Nsg11
Nsg12
Nsg13
g14
sbaS'(a / anger-01~e.3\n      :ARG0~e.4 (p2 / pressure-01~e.7\n            :ARG0 (i / international~e.6)\n            :ARG1~e.8 (c2 / cuisine~e.11\n                  :poss~e.9 (COREF_p_0 / person~e.9)\n                  :mod (t / traditional~e.10)))\n      :ARG1 (p / person\n            :source (c / country)))'
p113
(dp114
(lp115
(lp116
(dp117
I1
tp118
tp119
Rp120
ag1
(g2
g3
(S'The Al @-@ Rashid Trust has not been officially banned in Pakistan .'
p121
(lp122
(iamr_util.Actions
AMRAction
p123
(dp124
g8
I3
sg9
Nsg10
Nsg11
Nsg12
Nsg13
g14
sba(iamr_util.Actions
AMRAction
p125
(dp126
g8
I3
sg9
Nsg10
Nsg11
Nsg12
Nsg13
g14
sba(iamr_util.Actions
AMRAction
p127
(dp128
g8
I3
sg9
Nsg10
Nsg11
Nsg12
Nsg13
g14
sba(iamr_util.Actions
AMRAction
p129
(dp130
g8
I3
sg9
Nsg10
Nsg11
Nsg12
Nsg13
g14
sba(iamr_util.Actions
AMRAction
p131
(dp132
g8
I3
sg9
Nsg10
Nsg11
Nsg12
Nsg13
g14
sba(iamr_util.Actions
AMRAction
p133
(dp134
g8
I3
sg9
Nsg10
Nsg11
Nsg12
Nsg13
g14
sba(iamr_util.Actions
AMRAction
p135
(dp136
g8
I0
sg9
Nsg10
Nsg11
g1
(cutil
Polarity
p137
c__builtin__
str
p138
S'-'
p139
tp140
Rp141
sg12
g141
sg13
g31
sba(iamr_util.Actions
AMRAction
p142
(dp143
g8
I3
sg9
Nsg10
Nsg11
Nsg12
Nsg13
g14
sba(iamr_util.Actions
AMRAction
p144
(dp145
g8
I0
sg9
Nsg10
Nsg11
S'official'
p146
sg12
S'o2'
p147
sg13
g31
sba(iamr_util.Actions
AMRAction
p148
(dp149
g8
I0
sg9
Nsg10
Nsg11
S'ban-01'
p150
sg12
S'b'
p151
sg13
g31
sba(iamr_util.Actions
AMRAction
p152
(dp153
g8
I1
sg9
Nsg10
Nsg11
S'mod'
p154
sg12
Nsg13
g83
sba(iamr_util.Actions
AMRAction
p155
(dp156
g8
I1
sg9
Nsg10
Nsg11
S'polarity'
p157
sg12
Nsg13
g83
sba(iamr_util.Actions
AMRAction
p158
(dp159
g8
I3
sg9
Nsg10
Nsg11
Nsg12
Nsg13
g14
sba(iamr_util.Actions
AMRAction
p160
(dp161
g8
I3
sg9
Nsg10
Nsg11
Nsg12
Nsg13
g14
sba(iamr_util.Actions
AMRAction
p162
(dp163
g8
I3
sg9
Nsg10
Nsg11
Nsg12
Nsg13
g14
sbaS'(b / ban-01~e.9 :polarity~e.6 -~e.6\n      :ARG1 (o / organization)\n      :mod (o2 / official~e.8)\n      :location~e.10 (c / country))'
p164
(dp165
(lp166
(lp167
(dp168
I1
tp169
tp170
Rp171
ag1
(g2
g3
(S'The State power monopoly United energy services and its regional subsidiary Kamchatenergo launched a program of power cuts to long @-@ term debtors on date-entity .'
p172
(lp173
(iamr_util.Actions
AMRAction
p174
(dp175
g8
I3
sg9
Nsg10
Nsg11
Nsg12
Nsg13
g14
sba(iamr_util.Actions
AMRAction
p176
(dp177
g8
I0
sg9
Nsg10
Nsg11
S'state'
p178
sg12
S's'
p179
sg13
g31
sba(iamr_util.Actions
AMRAction
p180
(dp181
g8
I0
sg9
Nsg10
Nsg11
S'power'
p182
sg12
S'p'
p183
sg13
g31
sba(iamr_util.Actions
AMRAction
p184
(dp185
g8
I0
sg9
Nsg10
Nsg11
S'monopoly'
p186
sg12
S'm'
p187
sg13
g31
sba(iamr_util.Actions
AMRAction
p188
(dp189
g8
I1
sg9
Nsg10
Nsg11
S'mod'
p190
sg12
Nsg13
g83
sba(iamr_util.Actions
AMRAction
p191
(dp192
g8
I1
sg9
Nsg10
Nsg11
g190
sg12
Nsg13
g83
sba(iamr_util.Actions
AMRAction
p193
(dp194
g8
I3
sg9
Nsg10
Nsg11
Nsg12
Nsg13
g14
sba(iamr_util.Actions
AMRAction
p195
(dp196
g8
I3
sg9
Nsg10
Nsg11
Nsg12
Nsg13
g14
sba(iamr_util.Actions
AMRAction
p197
(dp198
g8
I3
sg9
Nsg10
Nsg11
Nsg12
Nsg13
g14
sba(iamr_util.Actions
AMRAction
p199
(dp200
g8
I0
sg9
Nsg10
Nsg11
S'and'
p201
sg12
g67
sg13
g31
sba(iamr_util.Actions
AMRAction
p202
(dp203
g8
I1
sg9
Nsg10
Nsg11
S'op1'
p204
sg12
Nsg13
g83
sba(iamr_util.Actions
AMRAction
p205
(dp206
g8
I0
sg9
Nsg10
Nsg11
S'monopoly'
p207
sg12
S'COREF_m_0'
p208
sg13
g31
sba(iamr_util.Actions
AMRAction
p209
(dp210
g8
I0
sg9
Nsg10
Nsg11
S'region'
p211
sg12
g30
sg13
g31
sba(iamr_util.Actions
AMRAction
p212
(dp213
g8
I0
sg9
Nsg10
Nsg11
S'subsidiary'
p214
sg12
S's2'
p215
sg13
g31
sba(iamr_util.Actions
AMRAction
p216
(dp217
g8
I1
sg9
Nsg10
Nsg11
S'location'
p218
sg12
Nsg13
g83
sba(iamr_util.Actions
AMRAction
p219
(dp220
g8
I1
sg9
Nsg10
Nsg11
S'poss'
p221
sg12
Nsg13
g83
sba(iamr_util.Actions
AMRAction
p222
(dp223
g8
I2
sg9
Nsg10
Nsg11
S'op2'
p224
sg12
Nsg13
g107
sba(iamr_util.Actions
AMRAction
p225
(dp226
g8
I3
sg9
Nsg10
Nsg11
Nsg12
Nsg13
g14
sba(iamr_util.Actions
AMRAction
p227
(dp228
g8
I0
sg9
Nsg10
Nsg11
S'launch-01'
p229
sg12
S'l'
p230
sg13
g31
sba(iamr_util.Actions
AMRAction
p231
(dp232
g8
I1
sg9
Nsg10
Nsg11
S'ARG0'
p233
sg12
Nsg13
g83
sba(iamr_util.Actions
AMRAction
p234
(dp235
g8
I3
sg9
Nsg10
Nsg11
Nsg12
Nsg13
g14
sba(iamr_util.Actions
AMRAction
p236
(dp237
g8
I0
sg9
Nsg10
Nsg11
S'program'
p238
sg12
S'p2'
p239
sg13
g31
sba(iamr_util.Actions
AMRAction
p240
(dp241
g8
I3
sg9
Nsg10
Nsg11
Nsg12
Nsg13
g14
sba(iamr_util.Actions
AMRAction
p242
(dp243
g8
I0
sg9
Nsg10
Nsg11
S'power'
p244
sg12
S'p3'
p245
sg13
g31
sba(iamr_util.Actions
AMRAction
p246
(dp247
g8
I0
sg9
Nsg10
Nsg11
S'cut-01'
p248
sg12
S'c'
p249
sg13
g31
sba(iamr_util.Actions
AMRAction
p250
(dp251
g8
I1
sg9
Nsg10
Nsg11
S'ARG1'
p252
sg12
Nsg13
g83
sba(iamr_util.Actions
AMRAction
p253
(dp254
g8
I3
sg9
Nsg10
Nsg11
Nsg12
Nsg13
g14
sba(iamr_util.Actions
AMRAction
p255
(dp256
g8
I0
sg9
Nsg10
Nsg11
S'long-03'
p257
sg12
S'l2'
p258
sg13
g31
sba(iamr_util.Actions
AMRAction
p259
(dp260
g8
I3
sg9
Nsg10
Nsg11
Nsg12
Nsg13
g14
sba(iamr_util.Actions
AMRAction
p261
(dp262
g8
I3
sg9
Nsg10
Nsg11
Nsg12
Nsg13
g14
sba(iamr_util.Actions
AMRAction
p263
(dp264
g8
I0
sg9
Nsg10
Nsg11
S'debtor'
p265
sg12
S'd'
p266
sg13
g31
sba(iamr_util.Actions
AMRAction
p267
(dp268
g8
I1
sg9
Nsg10
Nsg11
S'duration'
p269
sg12
Nsg13
g83
sba(iamr_util.Actions
AMRAction
p270
(dp271
g8
I2
sg9
Nsg10
Nsg11
S'ARG2'
p272
sg12
Nsg13
g107
sba(iamr_util.Actions
AMRAction
p273
(dp274
g8
I2
sg9
Nsg10
Nsg11
S'consist-of'
p275
sg12
Nsg13
g107
sba(iamr_util.Actions
AMRAction
p276
(dp277
g8
I2
sg9
Nsg10
Nsg11
S'ARG1'
p278
sg12
Nsg13
g107
sba(iamr_util.Actions
AMRAction
p279
(dp280
g8
I3
sg9
Nsg10
Nsg11
Nsg12
Nsg13
g14
sba(iamr_util.Actions
AMRAction
p281
(dp282
g8
I0
sg9
Nsg10
Nsg11
S'date-entity'
p283
sg12
S'd2'
p284
sg13
g31
sba(iamr_util.Actions
AMRAction
p285
(dp286
g8
I2
sg9
Nsg10
Nsg11
S'time'
p287
sg12
Nsg13
g107
sba(iamr_util.Actions
AMRAction
p288
(dp289
g8
I3
sg9
Nsg10
Nsg11
Nsg12
Nsg13
g14
sbaS'(l / launch-01~e.12\n      :ARG0 (a / and~e.7\n            :op1 (m / monopoly~e.3\n                  :mod (p / power~e.2)\n                  :mod (s / state~e.1))\n            :op2 (s2 / subsidiary~e.10\n                  :location (r / region~e.9)\n                  :poss~e.8 (COREF_m_0 / monopoly~e.8)))\n      :ARG1 (p2 / program~e.14\n            :consist-of~e.15 (c / cut-01~e.17\n                  :ARG1 (p3 / power~e.16)\n                  :ARG2~e.18 (d / debtor~e.22\n                        :duration~e.21 (l2 / long-03~e.19))))\n      :time~e.23 (d2 / date-entity~e.24 :year~e.24 2002~e.24 :month~e.24 1~e.24 :day~e.24 25~e.24))'
p290
(dp291
(lp292
(lp293
(dp294
g284
(iamr_util.Node
Node
p295
(dp296
S'tag'
p297
NsS'children'
p298
(lp299
((iamr_util.Node
Node
p300
(dp301
g297
g1
(cutil
Quantity
p302
g138
S'2002'
p303
tp304
Rp305
sg298
(lp306
sg11
NsbS'year'
p307
tp308
a((iamr_util.Node
Node
p309
(dp310
g297
g1
(g302
g138
S'25'
p311
tp312
Rp313
sg298
(lp314
sg11
NsbS'day'
p315
tp316
a((iamr_util.Node
Node
p317
(dp318
g297
g1
(g302
g138
S'1'
p319
tp320
Rp321
sg298
(lp322
sg11
NsbS'month'
p323
tp324
asg11
S'date-entity'
p325
sbsI1
tp326
tp327
Rp328
ag1
(g2
g3
(S'United energy services argues that non @-@ payment of bills has prevented it from maintaining supplies .'
p329
(lp330
(iamr_util.Actions
AMRAction
p331
(dp332
g8
I3
sg9
Nsg10
Nsg11
Nsg12
Nsg13
g14
sba(iamr_util.Actions
AMRAction
p333
(dp334
g8
I3
sg9
Nsg10
Nsg11
Nsg12
Nsg13
g14
sba(iamr_util.Actions
AMRAction
p335
(dp336
g8
I3
sg9
Nsg10
Nsg11
Nsg12
Nsg13
g14
sba(iamr_util.Actions
AMRAction
p337
(dp338
g8
I0
sg9
Nsg10
Nsg11
S'argue-01'
p339
sg12
g67
sg13
g31
sba(iamr_util.Actions
AMRAction
p340
(dp341
g8
I3
sg9
Nsg10
Nsg11
Nsg12
Nsg13
g14
sba(iamr_util.Actions
AMRAction
p342
(dp343
g8
I0
sg9
Nsg10
Nsg11
g1
(g137
g138
g139
tp344
Rp345
sg12
g345
sg13
g31
sba(iamr_util.Actions
AMRAction
p346
(dp347
g8
I3
sg9
Nsg10
Nsg11
Nsg12
Nsg13
g14
sba(iamr_util.Actions
AMRAction
p348
(dp349
g8
I0
sg9
Nsg10
Nsg11
S'pay-01'
p350
sg12
S'p2'
p351
sg13
g31
sba(iamr_util.Actions
AMRAction
p352
(dp353
g8
I1
sg9
Nsg10
Nsg11
S'polarity'
p354
sg12
Nsg13
g83
sba(iamr_util.Actions
AMRAction
p355
(dp356
g8
I3
sg9
Nsg10
Nsg11
Nsg12
Nsg13
g14
sba(iamr_util.Actions
AMRAction
p357
(dp358
g8
I0
sg9
Nsg10
Nsg11
S'bill'
p359
sg12
g151
sg13
g31
sba(iamr_util.Actions
AMRAction
p360
(dp361
g8
I2
sg9
Nsg10
Nsg11
S'ARG3'
p362
sg12
Nsg13
g107
sba(iamr_util.Actions
AMRAction
p363
(dp364
g8
I3
sg9
Nsg10
Nsg11
Nsg12
Nsg13
g14
sba(iamr_util.Actions
AMRAction
p365
(dp366
g8
I0
sg9
Nsg10
Nsg11
S'prevent-01'
p367
sg12
g183
sg13
g31
sba(iamr_util.Actions
AMRAction
p368
(dp369
g8
I1
sg9
Nsg10
Nsg11
S'ARG0'
p370
sg12
Nsg13
g83
sba(iamr_util.Actions
AMRAction
p371
(dp372
g8
I0
sg9
Nsg10
Nsg11
S'company'
p373
sg12
S'COREF_c_0'
p374
sg13
g31
sba(iamr_util.Actions
AMRAction
p375
(dp376
g8
I3
sg9
Nsg10
Nsg11
Nsg12
Nsg13
g14
sba(iamr_util.Actions
AMRAction
p377
(dp378
g8
I0
sg9
Nsg10
Nsg11
S'maintain-01'
p379
sg12
g187
sg13
g31
sba(iamr_util.Actions
AMRAction
p380
(dp381
g8
I1
sg9
Nsg10
Nsg11
S'ARG0'
p382
sg12
Nsg13
g83
sba(iamr_util.Actions
AMRAction
p383
(dp384
g8
I0
sg9
Nsg10
Nsg11
S'supply'
p385
sg12
g179
sg13
g31
sba(iamr_util.Actions
AMRAction
p386
(dp387
g8
I2
sg9
Nsg10
Nsg11
S'ARG1'
p388
sg12
Nsg13
g107
sba(iamr_util.Actions
AMRAction
p389
(dp390
g8
I2
sg9
Nsg10
Nsg11
S'ARG1'
p391
sg12
Nsg13
g107
sba(iamr_util.Actions
AMRAction
p392
(dp393
g8
I2
sg9
Nsg10
Nsg11
S'ARG1'
p394
sg12
Nsg13
g107
sba(iamr_util.Actions
AMRAction
p395
(dp396
g8
I3
sg9
Nsg10
Nsg11
Nsg12
Nsg13
g14
sbaS'(a / argue-01~e.3\n      :ARG0 (c / company)\n      :ARG1~e.4 (p / prevent-01~e.11\n            :ARG0 (p2 / pay-01~e.7 :polarity~e.5 -~e.5\n                  :ARG3~e.8 (b / bill~e.9))\n            :ARG1 (m / maintain-01~e.14\n                  :ARG0 (COREF_c_0 / company~e.12)\n                  :ARG1 (s / supply~e.15))))'
p397
(dp398
(lp399
(lp400
(dp401
I1
tp402
tp403
Rp404
ag1
(g2
g3
(S'Kamchatenergo stated that non @-@ payment of bills prevent it from maintaining power supplies .'
p405
(lp406
(iamr_util.Actions
AMRAction
p407
(dp408
g8
I3
sg9
Nsg10
Nsg11
Nsg12
Nsg13
g14
sba(iamr_util.Actions
AMRAction
p409
(dp410
g8
I0
sg9
Nsg10
Nsg11
S'state-01'
p411
sg12
g179
sg13
g31
sba(iamr_util.Actions
AMRAction
p412
(dp413
g8
I3
sg9
Nsg10
Nsg11
Nsg12
Nsg13
g14
sba(iamr_util.Actions
AMRAction
p414
(dp415
g8
I0
sg9
Nsg10
Nsg11
g1
(g137
g138
g139
tp416
Rp417
sg12
g417
sg13
g31
sba(iamr_util.Actions
AMRAction
p418
(dp419
g8
I3
sg9
Nsg10
Nsg11
Nsg12
Nsg13
g14
sba(iamr_util.Actions
AMRAction
p420
(dp421
g8
I0
sg9
Nsg10
Nsg11
S'pay-01'
p422
sg12
S'p2'
p423
sg13
g31
sba(iamr_util.Actions
AMRAction
p424
(dp425
g8
I1
sg9
Nsg10
Nsg11
S'polarity'
p426
sg12
Nsg13
g83
sba(iamr_util.Actions
AMRAction
p427
(dp428
g8
I3
sg9
Nsg10
Nsg11
Nsg12
Nsg13
g14
sba(iamr_util.Actions
AMRAction
p429
(dp430
g8
I0
sg9
Nsg10
Nsg11
S'bill-01'
p431
sg12
g151
sg13
g31
sba(iamr_util.Actions
AMRAction
p432
(dp433
g8
I2
sg9
Nsg10
Nsg11
S'ARG3'
p434
sg12
Nsg13
g107
sba(iamr_util.Actions
AMRAction
p435
(dp436
g8
I0
sg9
Nsg10
Nsg11
S'prevent-01'
p437
sg12
g183
sg13
g31
sba(iamr_util.Actions
AMRAction
p438
(dp439
g8
I1
sg9
Nsg10
Nsg11
S'ARG0'
p440
sg12
Nsg13
g83
sba(iamr_util.Actions
AMRAction
p441
(dp442
g8
I0
sg9
Nsg10
Nsg11
S'company'
p443
sg12
S'COREF_c_0'
p444
sg13
g31
sba(iamr_util.Actions
AMRAction
p445
(dp446
g8
I3
sg9
Nsg10
Nsg11
Nsg12
Nsg13
g14
sba(iamr_util.Actions
AMRAction
p447
(dp448
g8
I0
sg9
Nsg10
Nsg11
S'maintain-01'
p449
sg12
g187
sg13
g31
sba(iamr_util.Actions
AMRAction
p450
(dp451
g8
I1
sg9
Nsg10
Nsg11
S'ARG0'
p452
sg12
Nsg13
g83
sba(iamr_util.Actions
AMRAction
p453
(dp454
g8
I0
sg9
Nsg10
Nsg11
S'power'
p455
sg12
S'p3'
p456
sg13
g31
sba(iamr_util.Actions
AMRAction
p457
(dp458
g8
I0
sg9
Nsg10
Nsg11
S'supply-01'
p459
sg12
S's2'
p460
sg13
g31
sba(iamr_util.Actions
AMRAction
p461
(dp462
g8
I1
sg9
Nsg10
Nsg11
S'ARG1'
p463
sg12
Nsg13
g83
sba(iamr_util.Actions
AMRAction
p464
(dp465
g8
I2
sg9
Nsg10
Nsg11
S'ARG1'
p466
sg12
Nsg13
g107
sba(iamr_util.Actions
AMRAction
p467
(dp468
g8
I2
sg9
Nsg10
Nsg11
S'ARG1'
p469
sg12
Nsg13
g107
sba(iamr_util.Actions
AMRAction
p470
(dp471
g8
I2
sg9
Nsg10
Nsg11
S'ARG1'
p472
sg12
Nsg13
g107
sba(iamr_util.Actions
AMRAction
p473
(dp474
g8
I3
sg9
Nsg10
Nsg11
Nsg12
Nsg13
g14
sbaS'(s / state-01~e.1\n      :ARG0 (c / company)\n      :ARG1~e.2 (p / prevent-01~e.8\n            :ARG0 (p2 / pay-01~e.5 :polarity~e.3 -~e.3\n                  :ARG3~e.6 (b / bill-01~e.7))\n            :ARG1 (m / maintain-01~e.11\n                  :ARG0 (COREF_c_0 / company~e.9)\n                  :ARG1 (s2 / supply-01~e.13\n                        :ARG1 (p3 / power~e.12)))))'
p475
(dp476
(lp477
(lp478
(dp479
I1
tp480
tp481
Rp482
ag1
(g2
g3
(S'If Japan rises to the occasion Japan will never be beaten even in terms of military power .'
p483
(lp484
(iamr_util.Actions
AMRAction
p485
(dp486
g8
I3
sg9
Nsg10
Nsg11
Nsg12
Nsg13
g14
sba(iamr_util.Actions
AMRAction
p487
(dp488
g8
I0
sg9
Nsg10
Nsg11
S'country'
p489
sg12
S'COREF_c_0'
p490
sg13
g31
sba(iamr_util.Actions
AMRAction
p491
(dp492
g8
I0
sg9
Nsg10
Nsg11
S'rise-01'
p493
sg12
g30
sg13
g31
sba(iamr_util.Actions
AMRAction
p494
(dp495
g8
I1
sg9
Nsg10
Nsg11
S'ARG1'
p496
sg12
Nsg13
g83
sba(iamr_util.Actions
AMRAction
p497
(dp498
g8
I3
sg9
Nsg10
Nsg11
Nsg12
Nsg13
g14
sba(iamr_util.Actions
AMRAction
p499
(dp500
g8
I3
sg9
Nsg10
Nsg11
Nsg12
Nsg13
g14
sba(iamr_util.Actions
AMRAction
p501
(dp502
g8
I0
sg9
Nsg10
Nsg11
S'occasion'
p503
sg12
S'o'
p504
sg13
g31
sba(iamr_util.Actions
AMRAction
p505
(dp506
g8
I2
sg9
Nsg10
Nsg11
S'ARG4'
p507
sg12
Nsg13
g107
sba(iamr_util.Actions
AMRAction
p508
(dp509
g8
I3
sg9
Nsg10
Nsg11
Nsg12
Nsg13
g14
sba(iamr_util.Actions
AMRAction
p510
(dp511
g8
I3
sg9
Nsg10
Nsg11
Nsg12
Nsg13
g14
sba(iamr_util.Actions
AMRAction
p512
(dp513
g8
I0
sg9
Nsg10
Nsg11
g1
(g137
g138
g139
tp514
Rp515
sg12
g515
sg13
g31
sba(iamr_util.Actions
AMRAction
p516
(dp517
g8
I3
sg9
Nsg10
Nsg11
Nsg12
Nsg13
g14
sba(iamr_util.Actions
AMRAction
p518
(dp519
g8
I0
sg9
Nsg10
Nsg11
S'beat-03'
p520
sg12
g151
sg13
g31
sba(iamr_util.Actions
AMRAction
p521
(dp522
g8
I1
sg9
Nsg10
Nsg11
S'polarity'
p523
sg12
Nsg13
g83
sba(iamr_util.Actions
AMRAction
p524
(dp525
g8
I1
sg9
Nsg10
Nsg11
S'condition'
p526
sg12
Nsg13
g83
sba(iamr_util.Actions
AMRAction
p527
(dp528
g8
I0
sg9
Nsg10
Nsg11
S'even'
p529
sg12
S'e2'
p530
sg13
g31
sba(iamr_util.Actions
AMRAction
p531
(dp532
g8
I3
sg9
Nsg10
Nsg11
Nsg12
Nsg13
g14
sba(iamr_util.Actions
AMRAction
p533
(dp534
g8
I3
sg9
Nsg10
Nsg11
Nsg12
Nsg13
g14
sba(iamr_util.Actions
AMRAction
p535
(dp536
g8
I3
sg9
Nsg10
Nsg11
Nsg12
Nsg13
g14
sba(iamr_util.Actions
AMRAction
p537
(dp538
g8
I0
sg9
Nsg10
Nsg11
S'military'
p539
sg12
g187
sg13
g31
sba(iamr_util.Actions
AMRAction
p540
(dp541
g8
I0
sg9
Nsg10
Nsg11
S'power'
p542
sg12
g183
sg13
g31
sba(iamr_util.Actions
AMRAction
p543
(dp544
g8
I1
sg9
Nsg10
Nsg11
S'mod'
p545
sg12
Nsg13
g83
sba(iamr_util.Actions
AMRAction
p546
(dp547
g8
I1
sg9
Nsg10
Nsg11
g545
sg12
Nsg13
g83
sba(iamr_util.Actions
AMRAction
p548
(dp549
g8
I2
sg9
Nsg10
Nsg11
S'ARG2'
p550
sg12
Nsg13
g107
sba(iamr_util.Actions
AMRAction
p551
(dp552
g8
I3
sg9
Nsg10
Nsg11
Nsg12
Nsg13
g14
sbaS'(b / beat-03~e.10 :polarity~e.8 -~e.8\n      :ARG1 (c / country)\n      :ARG2 (p / power~e.16\n            :mod (m / military~e.15)\n            :mod (e2 / even~e.11))\n      :condition~e.0 (r / rise-01~e.2\n            :ARG1 (COREF_c_0 / country~e.1,6)\n            :ARG4~e.3 (o / occasion~e.5))\n      :time (e / ever~e.8))'
p553
(dp554
(lp555
(lp556
(dp557
I1
tp558
tp559
Rp560
ag1
(g2
g3
(S'Myanmar is optimistic that drug planting in the country would be eradicated with the introduction of alternate cash crop planting in date-entity and tough policing .'
p561
(lp562
(iamr_util.Actions
AMRAction
p563
(dp564
g8
I3
sg9
Nsg10
Nsg11
Nsg12
Nsg13
g14
sba(iamr_util.Actions
AMRAction
p565
(dp566
g8
I3
sg9
Nsg10
Nsg11
Nsg12
Nsg13
g14
sba(iamr_util.Actions
AMRAction
p567
(dp568
g8
I0
sg9
Nsg10
Nsg11
S'optimistic'
p569
sg12
g504
sg13
g31
sba(iamr_util.Actions
AMRAction
p570
(dp571
g8
I3
sg9
Nsg10
Nsg11
Nsg12
Nsg13
g14
sba(iamr_util.Actions
AMRAction
p572
(dp573
g8
I0
sg9
Nsg10
Nsg11
S'drug'
p574
sg12
S'd2'
p575
sg13
g31
sba(iamr_util.Actions
AMRAction
p576
(dp577
g8
I0
sg9
Nsg10
Nsg11
S'plant-01'
p578
sg12
g183
sg13
g31
sba(iamr_util.Actions
AMRAction
p579
(dp580
g8
I1
sg9
Nsg10
Nsg11
S'ARG1'
p581
sg12
Nsg13
g83
sba(iamr_util.Actions
AMRAction
p582
(dp583
g8
I3
sg9
Nsg10
Nsg11
Nsg12
Nsg13
g14
sba(iamr_util.Actions
AMRAction
p584
(dp585
g8
I3
sg9
Nsg10
Nsg11
Nsg12
Nsg13
g14
sba(iamr_util.Actions
AMRAction
p586
(dp587
g8
I0
sg9
Nsg10
Nsg11
S'country'
p588
sg12
S'COREF_c2_0'
p589
sg13
g31
sba(iamr_util.Actions
AMRAction
p590
(dp591
g8
I2
sg9
Nsg10
Nsg11
S'location'
p592
sg12
Nsg13
g107
sba(iamr_util.Actions
AMRAction
p593
(dp594
g8
I3
sg9
Nsg10
Nsg11
Nsg12
Nsg13
g14
sba(iamr_util.Actions
AMRAction
p595
(dp596
g8
I3
sg9
Nsg10
Nsg11
Nsg12
Nsg13
g14
sba(iamr_util.Actions
AMRAction
p597
(dp598
g8
I0
sg9
Nsg10
Nsg11
S'eradicate-01'
p599
sg12
S'e'
p600
sg13
g31
sba(iamr_util.Actions
AMRAction
p601
(dp602
g8
I1
sg9
Nsg10
Nsg11
S'ARG1'
p603
sg12
Nsg13
g83
sba(iamr_util.Actions
AMRAction
p604
(dp605
g8
I3
sg9
Nsg10
Nsg11
Nsg12
Nsg13
g14
sba(iamr_util.Actions
AMRAction
p606
(dp607
g8
I3
sg9
Nsg10
Nsg11
Nsg12
Nsg13
g14
sba(iamr_util.Actions
AMRAction
p608
(dp609
g8
I0
sg9
Nsg10
Nsg11
S'introduce-02'
p610
sg12
g75
sg13
g31
sba(iamr_util.Actions
AMRAction
p611
(dp612
g8
I3
sg9
Nsg10
Nsg11
Nsg12
Nsg13
g14
sba(iamr_util.Actions
AMRAction
p613
(dp614
g8
I0
sg9
Nsg10
Nsg11
S'alternate'
p615
sg12
S'a2'
p616
sg13
g31
sba(iamr_util.Actions
AMRAction
p617
(dp618
g8
I0
sg9
Nsg10
Nsg11
S'cash'
p619
sg12
S'c4'
p620
sg13
g31
sba(iamr_util.Actions
AMRAction
p621
(dp622
g8
I0
sg9
Nsg10
Nsg11
S'crop'
p623
sg12
S'c3'
p624
sg13
g31
sba(iamr_util.Actions
AMRAction
p625
(dp626
g8
I1
sg9
Nsg10
Nsg11
S'mod'
p627
sg12
Nsg13
g83
sba(iamr_util.Actions
AMRAction
p628
(dp629
g8
I1
sg9
Nsg10
Nsg11
g627
sg12
Nsg13
g83
sba(iamr_util.Actions
AMRAction
p630
(dp631
g8
I0
sg9
Nsg10
Nsg11
S'plant-01'
p632
sg12
S'p2'
p633
sg13
g31
sba(iamr_util.Actions
AMRAction
p634
(dp635
g8
I1
sg9
Nsg10
Nsg11
S'ARG1'
p636
sg12
Nsg13
g83
sba(iamr_util.Actions
AMRAction
p637
(dp638
g8
I3
sg9
Nsg10
Nsg11
Nsg12
Nsg13
g14
sba(iamr_util.Actions
AMRAction
p639
(dp640
g8
I0
sg9
Nsg10
Nsg11
S'date-entity'
p641
sg12
S'd3'
p642
sg13
g31
sba(iamr_util.Actions
AMRAction
p643
(dp644
g8
I2
sg9
Nsg10
Nsg11
S'time'
p645
sg12
Nsg13
g107
sba(iamr_util.Actions
AMRAction
p646
(dp647
g8
I0
sg9
Nsg10
Nsg11
S'and'
p648
sg12
g67
sg13
g31
sba(iamr_util.Actions
AMRAction
p649
(dp650
g8
I1
sg9
Nsg10
Nsg11
S'op1'
p651
sg12
Nsg13
g83
sba(iamr_util.Actions
AMRAction
p652
(dp653
g8
I0
sg9
Nsg10
Nsg11
S'tough-03'
p654
sg12
g93
sg13
g31
sba(iamr_util.Actions
AMRAction
p655
(dp656
g8
I0
sg9
Nsg10
Nsg11
S'police-01'
p657
sg12
S'p3'
p658
sg13
g31
sba(iamr_util.Actions
AMRAction
p659
(dp660
g8
I1
sg9
Nsg10
Nsg11
S'manner'
p661
sg12
Nsg13
g83
sba(iamr_util.Actions
AMRAction
p662
(dp663
g8
I2
sg9
Nsg10
Nsg11
S'op2'
p664
sg12
Nsg13
g107
sba(iamr_util.Actions
AMRAction
p665
(dp666
g8
I2
sg9
Nsg10
Nsg11
S'ARG1'
p667
sg12
Nsg13
g107
sba(iamr_util.Actions
AMRAction
p668
(dp669
g8
I2
sg9
Nsg10
Nsg11
S'ARG0'
p670
sg12
Nsg13
g107
sba(iamr_util.Actions
AMRAction
p671
(dp672
g8
I2
sg9
Nsg10
Nsg11
S'topic'
p673
sg12
Nsg13
g107
sba(iamr_util.Actions
AMRAction
p674
(dp675
g8
I3
sg9
Nsg10
Nsg11
Nsg12
Nsg13
g14
sbaS'(o / optimistic~e.2\n      :domain~e.1 (c2 / country)\n      :topic (e / eradicate-01~e.11\n            :ARG0~e.12 (i / introduce-02~e.14\n                  :ARG1~e.15 (a / and~e.22\n                        :op1 (p2 / plant-01~e.19\n                              :ARG1 (c3 / crop~e.18\n                                    :mod (c4 / cash~e.17)\n                                    :mod (a2 / alternate~e.16))\n                              :time~e.20 (d3 / date-entity :month~e.21 4~e.21))\n                        :op2 (p3 / police-01~e.24\n                              :manner (t / tough-03~e.23))))\n            :ARG1 (p / plant-01~e.5\n                  :ARG1 (d2 / drug~e.4)\n                  :location~e.6 (COREF_c2_0 / country~e.8,9,10))))'
p676
(dp677
(lp678
(lp679
(dp680
g642
(iamr_util.Node
Node
p681
(dp682
g297
Nsg298
(lp683
((iamr_util.Node
Node
p684
(dp685
g297
g1
(g302
g138
S'4'
p686
tp687
Rp688
sg298
(lp689
sg11
NsbS'month'
p690
tp691
asg11
g325
sbsI1
tp692
tp693
Rp694
ag1
(g2
g3
(S"Afghanistan expects private sector activity to aid Afghanistan 's reconstruction ."
p695
(lp696
(iamr_util.Actions
AMRAction
p697
(dp698
g8
I3
sg9
Nsg10
Nsg11
Nsg12
Nsg13
g14
sba(iamr_util.Actions
AMRAction
p699
(dp700
g8
I0
sg9
Nsg10
Nsg11
S'expect-01'
p701
sg12
g600
sg13
g31
sba(iamr_util.Actions
AMRAction
p702
(dp703
g8
I0
sg9
Nsg10
Nsg11
S'private-03'
p704
sg12
g183
sg13
g31
sba(iamr_util.Actions
AMRAction
p705
(dp706
g8
I0
sg9
Nsg10
Nsg11
S'sector'
p707
sg12
g179
sg13
g31
sba(iamr_util.Actions
AMRAction
p708
(dp709
g8
I1
sg9
Nsg10
Nsg11
S'ARG1-of'
p710
sg12
Nsg13
g83
sba(iamr_util.Actions
AMRAction
p711
(dp712
g8
I0
sg9
Nsg10
Nsg11
S'activity-06'
p713
sg12
S'a2'
p714
sg13
g31
sba(iamr_util.Actions
AMRAction
p715
(dp716
g8
I1
sg9
Nsg10
Nsg11
S'ARG0'
p717
sg12
Nsg13
g83
sba(iamr_util.Actions
AMRAction
p718
(dp719
g8
I3
sg9
Nsg10
Nsg11
Nsg12
Nsg13
g14
sba(iamr_util.Actions
AMRAction
p720
(dp721
g8
I0
sg9
Nsg10
Nsg11
S'aid-01'
p722
sg12
g67
sg13
g31
sba(iamr_util.Actions
AMRAction
p723
(dp724
g8
I1
sg9
Nsg10
Nsg11
S'ARG0'
p725
sg12
Nsg13
g83
sba(iamr_util.Actions
AMRAction
p726
(dp727
g8
I0
sg9
Nsg10
Nsg11
S'country'
p728
sg12
S'COREF_c_0'
p729
sg13
g31
sba(iamr_util.Actions
AMRAction
p730
(dp731
g8
I3
sg9
Nsg10
Nsg11
Nsg12
Nsg13
g14
sba(iamr_util.Actions
AMRAction
p732
(dp733
g8
I0
sg9
Nsg10
Nsg11
S'reconstruct-01'
p734
sg12
g30
sg13
g31
sba(iamr_util.Actions
AMRAction
p735
(dp736
g8
I1
sg9
Nsg10
Nsg11
S'ARG1'
p737
sg12
Nsg13
g83
sba(iamr_util.Actions
AMRAction
p738
(dp739
g8
I2
sg9
Nsg10
Nsg11
S'ARG2'
p740
sg12
Nsg13
g107
sba(iamr_util.Actions
AMRAction
p741
(dp742
g8
I2
sg9
Nsg10
Nsg11
S'ARG1'
p743
sg12
Nsg13
g107
sba(iamr_util.Actions
AMRAction
p744
(dp745
g8
I3
sg9
Nsg10
Nsg11
Nsg12
Nsg13
g14
sbaS'(e / expect-01~e.1\n      :ARG0 (c / country)\n      :ARG1 (a / aid-01~e.6\n            :ARG0 (a2 / activity-06~e.4\n                  :ARG0 (s / sector~e.3\n                        :ARG1-of (p / private-03~e.2)))\n            :ARG2 (r / reconstruct-01~e.9\n                  :ARG1~e.8 (COREF_c_0 / country~e.7))))'
p746
(dp747
(lp748
(lp749
(dp750
I1
tp751
tp752
Rp753
ag1
(g2
g3
(S'Lemahieu said that this ceremony had less processed opium and heroin than opium seeds .'
p754
(lp755
(iamr_util.Actions
AMRAction
p756
(dp757
g8
I3
sg9
Nsg10
Nsg11
Nsg12
Nsg13
g14
sba(iamr_util.Actions
AMRAction
p758
(dp759
g8
I0
sg9
Nsg10
Nsg11
S'say-01'
p760
sg12
g179
sg13
g31
sba(iamr_util.Actions
AMRAction
p761
(dp762
g8
I3
sg9
Nsg10
Nsg11
Nsg12
Nsg13
g14
sba(iamr_util.Actions
AMRAction
p763
(dp764
g8
I0
sg9
Nsg10
Nsg11
S'this'
p765
sg12
g93
sg13
g31
sba(iamr_util.Actions
AMRAction
p766
(dp767
g8
I0
sg9
Nsg10
Nsg11
S'ceremony'
p768
sg12
g249
sg13
g31
sba(iamr_util.Actions
AMRAction
p769
(dp770
g8
I1
sg9
Nsg10
Nsg11
S'mod'
p771
sg12
Nsg13
g83
sba(iamr_util.Actions
AMRAction
p772
(dp773
g8
I0
sg9
Nsg10
Nsg11
S'have-03'
p774
sg12
S'h'
p775
sg13
g31
sba(iamr_util.Actions
AMRAction
p776
(dp777
g8
I1
sg9
Nsg10
Nsg11
S'ARG0'
p778
sg12
Nsg13
g83
sba(iamr_util.Actions
AMRAction
p779
(dp780
g8
I0
sg9
Nsg10
Nsg11
S'less'
p781
sg12
g230
sg13
g31
sba(iamr_util.Actions
AMRAction
p782
(dp783
g8
I0
sg9
Nsg10
Nsg11
S'process-01'
p784
sg12
g183
sg13
g31
sba(iamr_util.Actions
AMRAction
p785
(dp786
g8
I0
sg9
Nsg10
Nsg11
S'opium'
p787
sg12
g504
sg13
g31
sba(iamr_util.Actions
AMRAction
p788
(dp789
g8
I0
sg9
Nsg10
Nsg11
S'and'
p790
sg12
g67
sg13
g31
sba(iamr_util.Actions
AMRAction
p791
(dp792
g8
I1
sg9
Nsg10
Nsg11
S'op1'
p793
sg12
Nsg13
g83
sba(iamr_util.Actions
AMRAction
p794
(dp795
g8
I1
sg9
Nsg10
Nsg11
S'ARG1-of'
p796
sg12
Nsg13
g83
sba(iamr_util.Actions
AMRAction
p797
(dp798
g8
I0
sg9
Nsg10
Nsg11
S'heroin'
p799
sg12
S'h2'
p800
sg13
g31
sba(iamr_util.Actions
AMRAction
p801
(dp802
g8
I2
sg9
Nsg10
Nsg11
S'op2'
p803
sg12
Nsg13
g107
sba(iamr_util.Actions
AMRAction
p804
(dp805
g8
I2
sg9
Nsg10
Nsg11
S'degree-of'
p806
sg12
Nsg13
g107
sba(iamr_util.Actions
AMRAction
p807
(dp808
g8
I3
sg9
Nsg10
Nsg11
Nsg12
Nsg13
g14
sba(iamr_util.Actions
AMRAction
p809
(dp810
g8
I0
sg9
Nsg10
Nsg11
S'opium'
p811
sg12
S'COREF_o_0'
p812
sg13
g31
sba(iamr_util.Actions
AMRAction
p813
(dp814
g8
I0
sg9
Nsg10
Nsg11
S'seed'
p815
sg12
S's2'
p816
sg13
g31
sba(iamr_util.Actions
AMRAction
p817
(dp818
g8
I1
sg9
Nsg10
Nsg11
S'part-of'
p819
sg12
Nsg13
g83
sba(iamr_util.Actions
AMRAction
p820
(dp821
g8
I2
sg9
Nsg10
Nsg11
S'compared-to'
p822
sg12
Nsg13
g107
sba(iamr_util.Actions
AMRAction
p823
(dp824
g8
I2
sg9
Nsg10
Nsg11
S'ARG1'
p825
sg12
Nsg13
g107
sba(iamr_util.Actions
AMRAction
p826
(dp827
g8
I2
sg9
Nsg10
Nsg11
S'ARG1'
p828
sg12
Nsg13
g107
sba(iamr_util.Actions
AMRAction
p829
(dp830
g8
I3
sg9
Nsg10
Nsg11
Nsg12
Nsg13
g14
sbaS'(s / say-01~e.1\n      :ARG0 (p2 / person)\n      :ARG1~e.2 (h / have-03~e.5\n            :ARG0 (c / ceremony~e.4\n                  :mod (t / this~e.3))\n            :ARG1 (l / less~e.6\n                  :degree-of (a / and~e.9\n                        :op1 (o / opium~e.8)\n                        :op2 (h2 / heroin~e.10)\n                        :ARG1-of (p / process-01~e.7))\n                  :compared-to~e.11 (s2 / seed~e.13\n                        :part-of (COREF_o_0 / opium~e.12)))))'
p831
(dp832
(lp833
(lp834
(dp835
I1
tp836
tp837
Rp838
ag1
(g2
g3
(S'Donohue said it is very difficult to manipulate radioactive isotopes without leaving a trail .'
p839
(lp840
(iamr_util.Actions
AMRAction
p841
(dp842
g8
I3
sg9
Nsg10
Nsg11
Nsg12
Nsg13
g14
sba(iamr_util.Actions
AMRAction
p843
(dp844
g8
I0
sg9
Nsg10
Nsg11
S'say-01'
p845
sg12
g179
sg13
g31
sba(iamr_util.Actions
AMRAction
p846
(dp847
g8
I3
sg9
Nsg10
Nsg11
Nsg12
Nsg13
g14
sba(iamr_util.Actions
AMRAction
p848
(dp849
g8
I3
sg9
Nsg10
Nsg11
Nsg12
Nsg13
g14
sba(iamr_util.Actions
AMRAction
p850
(dp851
g8
I0
sg9
Nsg10
Nsg11
S'very'
p852
sg12
S'v'
p853
sg13
g31
sba(iamr_util.Actions
AMRAction
p854
(dp855
g8
I0
sg9
Nsg10
Nsg11
S'difficult'
p856
sg12
g266
sg13
g31
sba(iamr_util.Actions
AMRAction
p857
(dp858
g8
I1
sg9
Nsg10
Nsg11
S'degree'
p859
sg12
Nsg13
g83
sba(iamr_util.Actions
AMRAction
p860
(dp861
g8
I3
sg9
Nsg10
Nsg11
Nsg12
Nsg13
g14
sba(iamr_util.Actions
AMRAction
p862
(dp863
g8
I0
sg9
Nsg10
Nsg11
S'manipulate-01'
p864
sg12
g187
sg13
g31
sba(iamr_util.Actions
AMRAction
p865
(dp866
g8
I0
sg9
Nsg10
Nsg11
S'radioactive'
p867
sg12
g30
sg13
g31
sba(iamr_util.Actions
AMRAction
p868
(dp869
g8
I0
sg9
Nsg10
Nsg11
S'isotope'
p870
sg12
g75
sg13
g31
sba(iamr_util.Actions
AMRAction
p871
(dp872
g8
I1
sg9
Nsg10
Nsg11
S'mod'
p873
sg12
Nsg13
g83
sba(iamr_util.Actions
AMRAction
p874
(dp875
g8
I2
sg9
Nsg10
Nsg11
S'ARG1'
p876
sg12
Nsg13
g107
sba(iamr_util.Actions
AMRAction
p877
(dp878
g8
I0
sg9
Nsg10
Nsg11
g1
(g137
g138
g139
tp879
Rp880
sg12
g880
sg13
g31
sba(iamr_util.Actions
AMRAction
p881
(dp882
g8
I0
sg9
Nsg10
Nsg11
S'leave-13'
p883
sg12
g230
sg13
g31
sba(iamr_util.Actions
AMRAction
p884
(dp885
g8
I1
sg9
Nsg10
Nsg11
S'polarity'
p886
sg12
Nsg13
g83
sba(iamr_util.Actions
AMRAction
p887
(dp888
g8
I3
sg9
Nsg10
Nsg11
Nsg12
Nsg13
g14
sba(iamr_util.Actions
AMRAction
p889
(dp890
g8
I0
sg9
Nsg10
Nsg11
S'trail'
p891
sg12
g93
sg13
g31
sba(iamr_util.Actions
AMRAction
p892
(dp893
g8
I2
sg9
Nsg10
Nsg11
S'ARG1'
p894
sg12
Nsg13
g107
sba(iamr_util.Actions
AMRAction
p895
(dp896
g8
I2
sg9
Nsg10
Nsg11
S'manner'
p897
sg12
Nsg13
g107
sba(iamr_util.Actions
AMRAction
p898
(dp899
g8
I2
sg9
Nsg10
Nsg11
S'domain'
p900
sg12
Nsg13
g107
sba(iamr_util.Actions
AMRAction
p901
(dp902
g8
I2
sg9
Nsg10
Nsg11
S'ARG1'
p903
sg12
Nsg13
g107
sba(iamr_util.Actions
AMRAction
p904
(dp905
g8
I3
sg9
Nsg10
Nsg11
Nsg12
Nsg13
g14
sbaS'(s / say-01~e.1\n      :ARG0 (p / person)\n      :ARG1 (d / difficult~e.5\n            :domain~e.3 (m / manipulate-01~e.7\n                  :ARG1 (i / isotope~e.9\n                        :mod (r / radioactive~e.8))\n                  :manner (l / leave-13~e.11 :polarity~e.10 -~e.10\n                        :ARG1 (t / trail~e.13)))\n            :degree (v / very~e.4)))'
p906
(dp907
(lp908
(lp909
(dp910
I1
tp911
tp912
Rp913
ag1
(g2
g3
(S"A trail will be left even if it 's only ultra @-@ traces ."
p914
(lp915
(iamr_util.Actions
AMRAction
p916
(dp917
g8
I3
sg9
Nsg10
Nsg11
Nsg12
Nsg13
g14
sba(iamr_util.Actions
AMRAction
p918
(dp919
g8
I0
sg9
Nsg10
Nsg11
S'trail'
p920
sg12
g93
sg13
g31
sba(iamr_util.Actions
AMRAction
p921
(dp922
g8
I3
sg9
Nsg10
Nsg11
Nsg12
Nsg13
g14
sba(iamr_util.Actions
AMRAction
p923
(dp924
g8
I3
sg9
Nsg10
Nsg11
Nsg12
Nsg13
g14
sba(iamr_util.Actions
AMRAction
p925
(dp926
g8
I0
sg9
Nsg10
Nsg11
S'leave-14'
p927
sg12
g230
sg13
g31
sba(iamr_util.Actions
AMRAction
p928
(dp929
g8
I1
sg9
Nsg10
Nsg11
S'ARG1'
p930
sg12
Nsg13
g83
sba(iamr_util.Actions
AMRAction
p931
(dp932
g8
I0
sg9
Nsg10
Nsg11
S'even-if'
p933
sg12
g600
sg13
g31
sba(iamr_util.Actions
AMRAction
p934
(dp935
g8
I3
sg9
Nsg10
Nsg11
Nsg12
Nsg13
g14
sba(iamr_util.Actions
AMRAction
p936
(dp937
g8
I0
sg9
Nsg10
Nsg11
S'trail'
p938
sg12
S'COREF_t_0'
p939
sg13
g31
sba(iamr_util.Actions
AMRAction
p940
(dp941
g8
I3
sg9
Nsg10
Nsg11
Nsg12
Nsg13
g14
sba(iamr_util.Actions
AMRAction
p942
(dp943
g8
I0
sg9
Nsg10
Nsg11
S'only'
p944
sg12
g504
sg13
g31
sba(iamr_util.Actions
AMRAction
p945
(dp946
g8
I0
sg9
Nsg10
Nsg11
S'ultra'
p947
sg12
S'u'
p948
sg13
g31
sba(iamr_util.Actions
AMRAction
p949
(dp950
g8
I3
sg9
Nsg10
Nsg11
Nsg12
Nsg13
g14
sba(iamr_util.Actions
AMRAction
p951
(dp952
g8
I0
sg9
Nsg10
Nsg11
S'trace'
p953
sg12
S't2'
p954
sg13
g31
sba(iamr_util.Actions
AMRAction
p955
(dp956
g8
I1
sg9
Nsg10
Nsg11
S'mod'
p957
sg12
Nsg13
g83
sba(iamr_util.Actions
AMRAction
p958
(dp959
g8
I1
sg9
Nsg10
Nsg11
g957
sg12
Nsg13
g83
sba(iamr_util.Actions
AMRAction
p960
(dp961
g8
I1
sg9
Nsg10
Nsg11
S'domain'
p962
sg12
Nsg13
g83
sba(iamr_util.Actions
AMRAction
p963
(dp964
g8
I2
sg9
Nsg10
Nsg11
S'op1'
p965
sg12
Nsg13
g107
sba(iamr_util.Actions
AMRAction
p966
(dp967
g8
I2
sg9
Nsg10
Nsg11
S'concession'
p968
sg12
Nsg13
g107
sba(iamr_util.Actions
AMRAction
p969
(dp970
g8
I3
sg9
Nsg10
Nsg11
Nsg12
Nsg13
g14
sbaS'(l / leave-14~e.4\n      :ARG1 (t / trail~e.1)\n      :concession (e / even-if~e.5,6\n            :op1 (t2 / trace~e.12\n                  :mod (u / ultra~e.10)\n                  :mod (o / only~e.9)\n                  :domain~e.3,8 (COREF_t_0 / trail~e.7))))'
p971
(dp972
(lp973
(lp974
(dp975
I1
tp976
tp977
Rp978
ag1
(g2
g3
(S'North Korea was criticized on date-entity for moving to restart its long @-@ dormant nuclear program .'
p979
(lp980
(iamr_util.Actions
AMRAction
p981
(dp982
g8
I3
sg9
Nsg10
Nsg11
Nsg12
Nsg13
g14
sba(iamr_util.Actions
AMRAction
p983
(dp984
g8
I3
sg9
Nsg10
Nsg11
Nsg12
Nsg13
g14
sba(iamr_util.Actions
AMRAction
p985
(dp986
g8
I3
sg9
Nsg10
Nsg11
Nsg12
Nsg13
g14
sba(iamr_util.Actions
AMRAction
p987
(dp988
g8
I0
sg9
Nsg10
Nsg11
S'criticize-01'
p989
sg12
g249
sg13
g31
sba(iamr_util.Actions
AMRAction
p990
(dp991
g8
I3
sg9
Nsg10
Nsg11
Nsg12
Nsg13
g14
sba(iamr_util.Actions
AMRAction
p992
(dp993
g8
I0
sg9
Nsg10
Nsg11
S'date-entity'
p994
sg12
g266
sg13
g31
sba(iamr_util.Actions
AMRAction
p995
(dp996
g8
I2
sg9
Nsg10
Nsg11
S'time'
p997
sg12
Nsg13
g107
sba(iamr_util.Actions
AMRAction
p998
(dp999
g8
I3
sg9
Nsg10
Nsg11
Nsg12
Nsg13
g14
sba(iamr_util.Actions
AMRAction
p1000
(dp1001
g8
I0
sg9
Nsg10
Nsg11
S'move-02'
p1002
sg12
g187
sg13
g31
sba(iamr_util.Actions
AMRAction
p1003
(dp1004
g8
I3
sg9
Nsg10
Nsg11
Nsg12
Nsg13
g14
sba(iamr_util.Actions
AMRAction
p1005
(dp1006
g8
I0
sg9
Nsg10
Nsg11
S'restart-01'
p1007
sg12
g30
sg13
g31
sba(iamr_util.Actions
AMRAction
p1008
(dp1009
g8
I0
sg9
Nsg10
Nsg11
S'government-organization'
p1010
sg12
S'COREF_g_0'
p1011
sg13
g31
sba(iamr_util.Actions
AMRAction
p1012
(dp1013
g8
I0
sg9
Nsg10
Nsg11
S'long-dormant'
p1014
sg12
g230
sg13
g31
sba(iamr_util.Actions
AMRAction
p1015
(dp1016
g8
I3
sg9
Nsg10
Nsg11
Nsg12
Nsg13
g14
sba(iamr_util.Actions
AMRAction
p1017
(dp1018
g8
I3
sg9
Nsg10
Nsg11
Nsg12
Nsg13
g14
sba(iamr_util.Actions
AMRAction
p1019
(dp1020
g8
I0
sg9
Nsg10
Nsg11
S'nucleus'
p1021
sg12
S'n2'
p1022
sg13
g31
sba(iamr_util.Actions
AMRAction
p1023
(dp1024
g8
I0
sg9
Nsg10
Nsg11
S'program'
p1025
sg12
g183
sg13
g31
sba(iamr_util.Actions
AMRAction
p1026
(dp1027
g8
I1
sg9
Nsg10
Nsg11
S'mod'
p1028
sg12
Nsg13
g83
sba(iamr_util.Actions
AMRAction
p1029
(dp1030
g8
I1
sg9
Nsg10
Nsg11
g1028
sg12
Nsg13
g83
sba(iamr_util.Actions
AMRAction
p1031
(dp1032
g8
I1
sg9
Nsg10
Nsg11
S'poss'
p1033
sg12
Nsg13
g83
sba(iamr_util.Actions
AMRAction
p1034
(dp1035
g8
I2
sg9
Nsg10
Nsg11
S'ARG1'
p1036
sg12
Nsg13
g107
sba(iamr_util.Actions
AMRAction
p1037
(dp1038
g8
I2
sg9
Nsg10
Nsg11
S'ARG1'
p1039
sg12
Nsg13
g107
sba(iamr_util.Actions
AMRAction
p1040
(dp1041
g8
I2
sg9
Nsg10
Nsg11
S'ARG2'
p1042
sg12
Nsg13
g107
sba(iamr_util.Actions
AMRAction
p1043
(dp1044
g8
I3
sg9
Nsg10
Nsg11
Nsg12
Nsg13
g14
sbaS'(c / criticize-01~e.3\n      :ARG1 (g / government-organization\n            :ARG0-of (g2 / govern-01\n                  :ARG1 (c2 / country)))\n      :ARG2~e.9 (m / move-02~e.10\n            :ARG1 (r / restart-01~e.12\n                  :ARG1 (p / program~e.18\n                        :mod (n2 / nucleus~e.17)\n                        :poss~e.13 (COREF_g_0 / government-organization~e.13)\n                        :mod (l / long-dormant~e.14,16))))\n      :time~e.4 (d / date-entity :year 2002~e.8 :month~e.5 12~e.5 :day 26~e.6))'
p1045
(dp1046
(lp1047
(lp1048
(dp1049
g266
(iamr_util.Node
Node
p1050
(dp1051
g297
Nsg298
(lp1052
((iamr_util.Node
Node
p1053
(dp1054
g297
g1
(g302
g138
S'2002'
p1055
tp1056
Rp1057
sg298
(lp1058
sg11
NsbS'year'
p1059
tp1060
a((iamr_util.Node
Node
p1061
(dp1062
g297
g1
(g302
g138
S'26'
p1063
tp1064
Rp1065
sg298
(lp1066
sg11
NsbS'day'
p1067
tp1068
a((iamr_util.Node
Node
p1069
(dp1070
g297
g1
(g302
g138
S'12'
p1071
tp1072
Rp1073
sg298
(lp1074
sg11
NsbS'month'
p1075
tp1076
asg11
g325
sbsI1
tp1077
tp1078
Rp1079
ag1
(g2
g3
(S'North Korea was criticized on date-entity for moving to restart its long @-@ dormant nuclear program .'
p1080
(lp1081
(iamr_util.Actions
AMRAction
p1082
(dp1083
g8
I3
sg9
Nsg10
Nsg11
Nsg12
Nsg13
g14
sba(iamr_util.Actions
AMRAction
p1084
(dp1085
g8
I3
sg9
Nsg10
Nsg11
Nsg12
Nsg13
g14
sba(iamr_util.Actions
AMRAction
p1086
(dp1087
g8
I3
sg9
Nsg10
Nsg11
Nsg12
Nsg13
g14
sba(iamr_util.Actions
AMRAction
p1088
(dp1089
g8
I0
sg9
Nsg10
Nsg11
S'criticize-01'
p1090
sg12
g249
sg13
g31
sba(iamr_util.Actions
AMRAction
p1091
(dp1092
g8
I3
sg9
Nsg10
Nsg11
Nsg12
Nsg13
g14
sba(iamr_util.Actions
AMRAction
p1093
(dp1094
g8
I0
sg9
Nsg10
Nsg11
S'date-entity'
p1095
sg12
g266
sg13
g31
sba(iamr_util.Actions
AMRAction
p1096
(dp1097
g8
I2
sg9
Nsg10
Nsg11
S'time'
p1098
sg12
Nsg13
g107
sba(iamr_util.Actions
AMRAction
p1099
(dp1100
g8
I3
sg9
Nsg10
Nsg11
Nsg12
Nsg13
g14
sba(iamr_util.Actions
AMRAction
p1101
(dp1102
g8
I0
sg9
Nsg10
Nsg11
S'move-02'
p1103
sg12
g187
sg13
g31
sba(iamr_util.Actions
AMRAction
p1104
(dp1105
g8
I3
sg9
Nsg10
Nsg11
Nsg12
Nsg13
g14
sba(iamr_util.Actions
AMRAction
p1106
(dp1107
g8
I0
sg9
Nsg10
Nsg11
S'restart-01'
p1108
sg12
g30
sg13
g31
sba(iamr_util.Actions
AMRAction
p1109
(dp1110
g8
I0
sg9
Nsg10
Nsg11
S'government-organization'
p1111
sg12
S'COREF_g_0'
p1112
sg13
g31
sba(iamr_util.Actions
AMRAction
p1113
(dp1114
g8
I0
sg9
Nsg10
Nsg11
S'long-dormant'
p1115
sg12
g230
sg13
g31
sba(iamr_util.Actions
AMRAction
p1116
(dp1117
g8
I3
sg9
Nsg10
Nsg11
Nsg12
Nsg13
g14
sba(iamr_util.Actions
AMRAction
p1118
(dp1119
g8
I3
sg9
Nsg10
Nsg11
Nsg12
Nsg13
g14
sba(iamr_util.Actions
AMRAction
p1120
(dp1121
g8
I0
sg9
Nsg10
Nsg11
S'nucleus'
p1122
sg12
S'n2'
p1123
sg13
g31
sba(iamr_util.Actions
AMRAction
p1124
(dp1125
g8
I0
sg9
Nsg10
Nsg11
S'program'
p1126
sg12
g183
sg13
g31
sba(iamr_util.Actions
AMRAction
p1127
(dp1128
g8
I1
sg9
Nsg10
Nsg11
S'mod'
p1129
sg12
Nsg13
g83
sba(iamr_util.Actions
AMRAction
p1130
(dp1131
g8
I1
sg9
Nsg10
Nsg11
g1129
sg12
Nsg13
g83
sba(iamr_util.Actions
AMRAction
p1132
(dp1133
g8
I1
sg9
Nsg10
Nsg11
S'poss'
p1134
sg12
Nsg13
g83
sba(iamr_util.Actions
AMRAction
p1135
(dp1136
g8
I2
sg9
Nsg10
Nsg11
S'ARG1'
p1137
sg12
Nsg13
g107
sba(iamr_util.Actions
AMRAction
p1138
(dp1139
g8
I2
sg9
Nsg10
Nsg11
S'ARG1'
p1140
sg12
Nsg13
g107
sba(iamr_util.Actions
AMRAction
p1141
(dp1142
g8
I2
sg9
Nsg10
Nsg11
S'ARG2'
p1143
sg12
Nsg13
g107
sba(iamr_util.Actions
AMRAction
p1144
(dp1145
g8
I3
sg9
Nsg10
Nsg11
Nsg12
Nsg13
g14
sbaS'(c / criticize-01~e.3\n      :ARG1 (g / government-organization\n            :ARG0-of (g2 / govern-01\n                  :ARG1 (c2 / country)))\n      :ARG2~e.9 (m / move-02~e.10\n            :ARG1 (r / restart-01~e.12\n                  :ARG1 (p / program~e.18\n                        :poss~e.13 (COREF_g_0 / government-organization~e.13)\n                        :mod (l / long-dormant~e.14,16)\n                        :mod (n2 / nucleus~e.17))))\n      :time~e.4 (d / date-entity :year 2002~e.8 :month~e.5 12~e.5 :day 26~e.6))'
p1146
(dp1147
(lp1148
(lp1149
(dp1150
g266
(iamr_util.Node
Node
p1151
(dp1152
g297
Nsg298
(lp1153
((iamr_util.Node
Node
p1154
(dp1155
g297
g1
(g302
g138
S'2002'
p1156
tp1157
Rp1158
sg298
(lp1159
sg11
NsbS'year'
p1160
tp1161
a((iamr_util.Node
Node
p1162
(dp1163
g297
g1
(g302
g138
S'26'
p1164
tp1165
Rp1166
sg298
(lp1167
sg11
NsbS'day'
p1168
tp1169
a((iamr_util.Node
Node
p1170
(dp1171
g297
g1
(g302
g138
S'12'
p1172
tp1173
Rp1174
sg298
(lp1175
sg11
NsbS'month'
p1176
tp1177
asg11
g325
sbsI1
tp1178
tp1179
Rp1180
ag1
(g2
g3
(S'Shenzhou IV is also referred to as Divine Vessel IV .'
p1181
(lp1182
(iamr_util.Actions
AMRAction
p1183
(dp1184
g8
I3
sg9
Nsg10
Nsg11
Nsg12
Nsg13
g14
sba(iamr_util.Actions
AMRAction
p1185
(dp1186
g8
I3
sg9
Nsg10
Nsg11
Nsg12
Nsg13
g14
sba(iamr_util.Actions
AMRAction
p1187
(dp1188
g8
I3
sg9
Nsg10
Nsg11
Nsg12
Nsg13
g14
sba(iamr_util.Actions
AMRAction
p1189
(dp1190
g8
I0
sg9
Nsg10
Nsg11
S'also'
p1191
sg12
g67
sg13
g31
sba(iamr_util.Actions
AMRAction
p1192
(dp1193
g8
I0
sg9
Nsg10
Nsg11
S'refer-01'
p1194
sg12
g30
sg13
g31
sba(iamr_util.Actions
AMRAction
p1195
(dp1196
g8
I1
sg9
Nsg10
Nsg11
S'mod'
p1197
sg12
Nsg13
g83
sba(iamr_util.Actions
AMRAction
p1198
(dp1199
g8
I3
sg9
Nsg10
Nsg11
Nsg12
Nsg13
g14
sba(iamr_util.Actions
AMRAction
p1200
(dp1201
g8
I3
sg9
Nsg10
Nsg11
Nsg12
Nsg13
g14
sba(iamr_util.Actions
AMRAction
p1202
(dp1203
g8
I3
sg9
Nsg10
Nsg11
Nsg12
Nsg13
g14
sba(iamr_util.Actions
AMRAction
p1204
(dp1205
g8
I3
sg9
Nsg10
Nsg11
Nsg12
Nsg13
g14
sba(iamr_util.Actions
AMRAction
p1206
(dp1207
g8
I3
sg9
Nsg10
Nsg11
Nsg12
Nsg13
g14
sba(iamr_util.Actions
AMRAction
p1208
(dp1209
g8
I3
sg9
Nsg10
Nsg11
Nsg12
Nsg13
g14
sbaS'(r / refer-01~e.4\n      :ARG1 (s / spaceship)\n      :ARG2 (s2 / spaceship)\n      :mod (a / also~e.3))'
p1210
(dp1211
(lp1212
(lp1213
(dp1214
I1
tp1215
tp1216
Rp1217
ag1
(g2
g3
(S'Sadagopan added that this type of hacking is possible , but there is no need to panic .'
p1218
(lp1219
(iamr_util.Actions
AMRAction
p1220
(dp1221
g8
I3
sg9
Nsg10
Nsg11
Nsg12
Nsg13
g14
sba(iamr_util.Actions
AMRAction
p1222
(dp1223
g8
I0
sg9
Nsg10
Nsg11
S'add-01'
p1224
sg12
g67
sg13
g31
sba(iamr_util.Actions
AMRAction
p1225
(dp1226
g8
I3
sg9
Nsg10
Nsg11
Nsg12
Nsg13
g14
sba(iamr_util.Actions
AMRAction
p1227
(dp1228
g8
I0
sg9
Nsg10
Nsg11
S'this'
p1229
sg12
S't3'
p1230
sg13
g31
sba(iamr_util.Actions
AMRAction
p1231
(dp1232
g8
I0
sg9
Nsg10
Nsg11
S'type'
p1233
sg12
S't4'
p1234
sg13
g31
sba(iamr_util.Actions
AMRAction
p1235
(dp1236
g8
I3
sg9
Nsg10
Nsg11
Nsg12
Nsg13
g14
sba(iamr_util.Actions
AMRAction
p1237
(dp1238
g8
I0
sg9
Nsg10
Nsg11
S'hack-04'
p1239
sg12
g775
sg13
g31
sba(iamr_util.Actions
AMRAction
p1240
(dp1241
g8
I1
sg9
Nsg10
Nsg11
S'mod'
p1242
sg12
Nsg13
g83
sba(iamr_util.Actions
AMRAction
p1243
(dp1244
g8
I1
sg9
Nsg10
Nsg11
g1242
sg12
Nsg13
g83
sba(iamr_util.Actions
AMRAction
p1245
(dp1246
g8
I3
sg9
Nsg10
Nsg11
Nsg12
Nsg13
g14
sba(iamr_util.Actions
AMRAction
p1247
(dp1248
g8
I0
sg9
Nsg10
Nsg11
S'possible-01'
p1249
sg12
S'p2'
p1250
sg13
g31
sba(iamr_util.Actions
AMRAction
p1251
(dp1252
g8
I1
sg9
Nsg10
Nsg11
S'ARG1'
p1253
sg12
Nsg13
g83
sba(iamr_util.Actions
AMRAction
p1254
(dp1255
g8
I3
sg9
Nsg10
Nsg11
Nsg12
Nsg13
g14
sba(iamr_util.Actions
AMRAction
p1256
(dp1257
g8
I0
sg9
Nsg10
Nsg11
S'contrast-01'
p1258
sg12
g249
sg13
g31
sba(iamr_util.Actions
AMRAction
p1259
(dp1260
g8
I3
sg9
Nsg10
Nsg11
Nsg12
Nsg13
g14
sba(iamr_util.Actions
AMRAction
p1261
(dp1262
g8
I3
sg9
Nsg10
Nsg11
Nsg12
Nsg13
g14
sba(iamr_util.Actions
AMRAction
p1263
(dp1264
g8
I0
sg9
Nsg10
Nsg11
g1
(g137
g138
g139
tp1265
Rp1266
sg12
g1266
sg13
g31
sba(iamr_util.Actions
AMRAction
p1267
(dp1268
g8
I0
sg9
Nsg10
Nsg11
S'need-01'
p1269
sg12
S'n2'
p1270
sg13
g31
sba(iamr_util.Actions
AMRAction
p1271
(dp1272
g8
I1
sg9
Nsg10
Nsg11
S'polarity'
p1273
sg12
Nsg13
g83
sba(iamr_util.Actions
AMRAction
p1274
(dp1275
g8
I3
sg9
Nsg10
Nsg11
Nsg12
Nsg13
g14
sba(iamr_util.Actions
AMRAction
p1276
(dp1277
g8
I0
sg9
Nsg10
Nsg11
S'panic-01'
p1278
sg12
S'p3'
p1279
sg13
g31
sba(iamr_util.Actions
AMRAction
p1280
(dp1281
g8
I2
sg9
Nsg10
Nsg11
S'ARG1'
p1282
sg12
Nsg13
g107
sba(iamr_util.Actions
AMRAction
p1283
(dp1284
g8
I2
sg9
Nsg10
Nsg11
S'ARG2'
p1285
sg12
Nsg13
g107
sba(iamr_util.Actions
AMRAction
p1286
(dp1287
g8
I2
sg9
Nsg10
Nsg11
S'ARG1-of'
p1288
sg12
Nsg13
g107
sba(iamr_util.Actions
AMRAction
p1289
(dp1290
g8
I2
sg9
Nsg10
Nsg11
S'ARG1'
p1291
sg12
Nsg13
g107
sba(iamr_util.Actions
AMRAction
p1292
(dp1293
g8
I3
sg9
Nsg10
Nsg11
Nsg12
Nsg13
g14
sbaS'(a / add-01~e.1\n      :ARG0 (p / person)\n      :ARG1~e.2 (p2 / possible-01~e.8\n            :ARG1 (h / hack-04~e.6\n                  :mod (t3 / this~e.3)\n                  :mod~e.5 (t4 / type~e.4))\n            :ARG1-of (c / contrast-01~e.10\n                  :ARG2 (n2 / need-01~e.14 :polarity~e.13 -~e.13\n                        :ARG1 (p3 / panic-01~e.16)))))'
p1294
(dp1295
(lp1296
(lp1297
(dp1298
I1
tp1299
tp1300
Rp1301
ag1
(g2
g3
(S'Van beek is the director of non @-@ proliferation and space in the Trade and Industry Department .'
p1302
(lp1303
(iamr_util.Actions
AMRAction
p1304
(dp1305
g8
I3
sg9
Nsg10
Nsg11
Nsg12
Nsg13
g14
sba(iamr_util.Actions
AMRAction
p1306
(dp1307
g8
I3
sg9
Nsg10
Nsg11
Nsg12
Nsg13
g14
sba(iamr_util.Actions
AMRAction
p1308
(dp1309
g8
I0
sg9
Nsg10
Nsg11
S'have-org-role-91'
p1310
sg12
g775
sg13
g31
sba(iamr_util.Actions
AMRAction
p1311
(dp1312
g8
I3
sg9
Nsg10
Nsg11
Nsg12
Nsg13
g14
sba(iamr_util.Actions
AMRAction
p1313
(dp1314
g8
I0
sg9
Nsg10
Nsg11
S'director'
p1315
sg12
g266
sg13
g31
sba(iamr_util.Actions
AMRAction
p1316
(dp1317
g8
I3
sg9
Nsg10
Nsg11
Nsg12
Nsg13
g14
sba(iamr_util.Actions
AMRAction
p1318
(dp1319
g8
I0
sg9
Nsg10
Nsg11
g1
(g137
g138
g139
tp1320
Rp1321
sg12
g1321
sg13
g31
sba(iamr_util.Actions
AMRAction
p1322
(dp1323
g8
I3
sg9
Nsg10
Nsg11
Nsg12
Nsg13
g14
sba(iamr_util.Actions
AMRAction
p1324
(dp1325
g8
I0
sg9
Nsg10
Nsg11
S'proliferate-01'
p1326
sg12
S'p2'
p1327
sg13
g31
sba(iamr_util.Actions
AMRAction
p1328
(dp1329
g8
I1
sg9
Nsg10
Nsg11
S'polarity'
p1330
sg12
Nsg13
g83
sba(iamr_util.Actions
AMRAction
p1331
(dp1332
g8
I0
sg9
Nsg10
Nsg11
S'and'
p1333
sg12
g67
sg13
g31
sba(iamr_util.Actions
AMRAction
p1334
(dp1335
g8
I1
sg9
Nsg10
Nsg11
S'op1'
p1336
sg12
Nsg13
g83
sba(iamr_util.Actions
AMRAction
p1337
(dp1338
g8
I0
sg9
Nsg10
Nsg11
S'space'
p1339
sg12
g179
sg13
g31
sba(iamr_util.Actions
AMRAction
p1340
(dp1341
g8
I2
sg9
Nsg10
Nsg11
S'op2'
p1342
sg12
Nsg13
g107
sba(iamr_util.Actions
AMRAction
p1343
(dp1344
g8
I2
sg9
Nsg10
Nsg11
S'topic'
p1345
sg12
Nsg13
g107
sba(iamr_util.Actions
AMRAction
p1346
(dp1347
g8
I2
sg9
Nsg10
Nsg11
S'ARG2'
p1348
sg12
Nsg13
g107
sba(iamr_util.Actions
AMRAction
p1349
(dp1350
g8
I3
sg9
Nsg10
Nsg11
Nsg12
Nsg13
g14
sba(iamr_util.Actions
AMRAction
p1351
(dp1352
g8
I3
sg9
Nsg10
Nsg11
Nsg12
Nsg13
g14
sba(iamr_util.Actions
AMRAction
p1353
(dp1354
g8
I3
sg9
Nsg10
Nsg11
Nsg12
Nsg13
g14
sba(iamr_util.Actions
AMRAction
p1355
(dp1356
g8
I3
sg9
Nsg10
Nsg11
Nsg12
Nsg13
g14
sba(iamr_util.Actions
AMRAction
p1357
(dp1358
g8
I3
sg9
Nsg10
Nsg11
Nsg12
Nsg13
g14
sba(iamr_util.Actions
AMRAction
p1359
(dp1360
g8
I3
sg9
Nsg10
Nsg11
Nsg12
Nsg13
g14
sba(iamr_util.Actions
AMRAction
p1361
(dp1362
g8
I3
sg9
Nsg10
Nsg11
Nsg12
Nsg13
g14
sbaS'(h / have-org-role-91~e.2\n      :ARG0 (p3 / person)\n      :ARG1 (o / organization)\n      :ARG2 (d / director~e.4\n            :topic~e.5 (a / and~e.9\n                  :op1 (p2 / proliferate-01~e.8 :polarity~e.6 -~e.6)\n                  :op2 (s / space~e.10))))'
p1363
(dp1364
(lp1365
(lp1366
(dp1367
I1
tp1368
tp1369
Rp1370
ag1
(g2
g3
(S'Clubbers use it to help them dance all night .'
p1371
(lp1372
(iamr_util.Actions
AMRAction
p1373
(dp1374
g8
I3
sg9
Nsg10
Nsg11
Nsg12
Nsg13
g14
sba(iamr_util.Actions
AMRAction
p1375
(dp1376
g8
I0
sg9
Nsg10
Nsg11
S'use-01'
p1377
sg12
g948
sg13
g31
sba(iamr_util.Actions
AMRAction
p1378
(dp1379
g8
I0
sg9
Nsg10
Nsg11
S'it'
p1380
sg12
g75
sg13
g31
sba(iamr_util.Actions
AMRAction
p1381
(dp1382
g8
I2
sg9
Nsg10
Nsg11
S'ARG1'
p1383
sg12
Nsg13
g107
sba(iamr_util.Actions
AMRAction
p1384
(dp1385
g8
I3
sg9
Nsg10
Nsg11
Nsg12
Nsg13
g14
sba(iamr_util.Actions
AMRAction
p1386
(dp1387
g8
I3
sg9
Nsg10
Nsg11
Nsg12
Nsg13
g14
sba(iamr_util.Actions
AMRAction
p1388
(dp1389
g8
I0
sg9
Nsg10
Nsg11
S'clubber'
p1390
sg12
S'COREF_c_0'
p1391
sg13
g31
sba(iamr_util.Actions
AMRAction
p1392
(dp1393
g8
I0
sg9
Nsg10
Nsg11
S'dance-01'
p1394
sg12
g266
sg13
g31
sba(iamr_util.Actions
AMRAction
p1395
(dp1396
g8
I1
sg9
Nsg10
Nsg11
S'ARG0'
p1397
sg12
Nsg13
g83
sba(iamr_util.Actions
AMRAction
p1398
(dp1399
g8
I0
sg9
Nsg10
Nsg11
S'all'
p1400
sg12
g67
sg13
g31
sba(iamr_util.Actions
AMRAction
p1401
(dp1402
g8
I0
sg9
Nsg10
Nsg11
S'night'
p1403
sg12
S'n'
p1404
sg13
g31
sba(iamr_util.Actions
AMRAction
p1405
(dp1406
g8
I1
sg9
Nsg10
Nsg11
S'mod'
p1407
sg12
Nsg13
g83
sba(iamr_util.Actions
AMRAction
p1408
(dp1409
g8
I2
sg9
Nsg10
Nsg11
S'time'
p1410
sg12
Nsg13
g107
sba(iamr_util.Actions
AMRAction
p1411
(dp1412
g8
I2
sg9
Nsg10
Nsg11
S'ARG2'
p1413
sg12
Nsg13
g107
sba(iamr_util.Actions
AMRAction
p1414
(dp1415
g8
I3
sg9
Nsg10
Nsg11
Nsg12
Nsg13
g14
sbaS'(u / use-01~e.1\n      :ARG0 (c / clubber)\n      :ARG1 (i / it~e.2)\n      :ARG2 (d / dance-01~e.6\n            :ARG0 (COREF_c_0 / clubber~e.5)\n            :time (n / night~e.8\n                  :mod (a / all~e.7))))'
p1416
(dp1417
(lp1418
(lp1419
(dp1420
I1
tp1421
tp1422
Rp1423
ag1
(g2
g3
(S'Rahti Begum was disconsolate as she watched her crop being destroyed .'
p1424
(lp1425
(iamr_util.Actions
AMRAction
p1426
(dp1427
g8
I3
sg9
Nsg10
Nsg11
Nsg12
Nsg13
g14
sba(iamr_util.Actions
AMRAction
p1428
(dp1429
g8
I3
sg9
Nsg10
Nsg11
Nsg12
Nsg13
g14
sba(iamr_util.Actions
AMRAction
p1430
(dp1431
g8
I3
sg9
Nsg10
Nsg11
Nsg12
Nsg13
g14
sba(iamr_util.Actions
AMRAction
p1432
(dp1433
g8
I0
sg9
Nsg10
Nsg11
S'disconsolate'
p1434
sg12
g266
sg13
g31
sba(iamr_util.Actions
AMRAction
p1435
(dp1436
g8
I3
sg9
Nsg10
Nsg11
Nsg12
Nsg13
g14
sba(iamr_util.Actions
AMRAction
p1437
(dp1438
g8
I0
sg9
Nsg10
Nsg11
S'person'
p1439
sg12
S'COREF_p2_0'
p1440
sg13
g31
sba(iamr_util.Actions
AMRAction
p1441
(dp1442
g8
I0
sg9
Nsg10
Nsg11
S'watch-01'
p1443
sg12
S'w'
p1444
sg13
g31
sba(iamr_util.Actions
AMRAction
p1445
(dp1446
g8
I1
sg9
Nsg10
Nsg11
S'ARG0'
p1447
sg12
Nsg13
g83
sba(iamr_util.Actions
AMRAction
p1448
(dp1449
g8
I0
sg9
Nsg10
Nsg11
S'person'
p1450
sg12
S'COREF_p2_1'
p1451
sg13
g31
sba(iamr_util.Actions
AMRAction
p1452
(dp1453
g8
I0
sg9
Nsg10
Nsg11
S'crop'
p1454
sg12
g249
sg13
g31
sba(iamr_util.Actions
AMRAction
p1455
(dp1456
g8
I1
sg9
Nsg10
Nsg11
S'poss'
p1457
sg12
Nsg13
g83
sba(iamr_util.Actions
AMRAction
p1458
(dp1459
g8
I3
sg9
Nsg10
Nsg11
Nsg12
Nsg13
g14
sba(iamr_util.Actions
AMRAction
p1460
(dp1461
g8
I0
sg9
Nsg10
Nsg11
S'destroy-01'
p1462
sg12
S'd2'
p1463
sg13
g31
sba(iamr_util.Actions
AMRAction
p1464
(dp1465
g8
I1
sg9
Nsg10
Nsg11
S'ARG1'
p1466
sg12
Nsg13
g83
sba(iamr_util.Actions
AMRAction
p1467
(dp1468
g8
I2
sg9
Nsg10
Nsg11
S'ARG1'
p1469
sg12
Nsg13
g107
sba(iamr_util.Actions
AMRAction
p1470
(dp1471
g8
I2
sg9
Nsg10
Nsg11
S'time'
p1472
sg12
Nsg13
g107
sba(iamr_util.Actions
AMRAction
p1473
(dp1474
g8
I3
sg9
Nsg10
Nsg11
Nsg12
Nsg13
g14
sbaS'(d / disconsolate~e.3\n      :domain~e.2 (p2 / person)\n      :time~e.4 (w / watch-01~e.6\n            :ARG0 (COREF_p2_0 / person~e.5)\n            :ARG1 (d2 / destroy-01~e.10\n                  :ARG1 (c / crop~e.8\n                        :poss~e.7 (COREF_p2_1 / person~e.7)))))'
p1475
(dp1476
(lp1477
(lp1478
(dp1479
I1
tp1480
tp1481
Rp1482
ag1
(g2
g3
(S'Europe ; Albania ( al ) ; Bosnia and herzegowina ( BA ) ; Croatia ( HR ) ; Macedonia , The former Yugoslav Republic of ( MK ) ; Serbia and Montenegro ( CS )'
p1483
(lp1484
(iamr_util.Actions
AMRAction
p1485
(dp1486
g8
I3
sg9
Nsg10
Nsg11
Nsg12
Nsg13
g14
sba(iamr_util.Actions
AMRAction
p1487
(dp1488
g8
I3
sg9
Nsg10
Nsg11
Nsg12
Nsg13
g14
sba(iamr_util.Actions
AMRAction
p1489
(dp1490
g8
I3
sg9
Nsg10
Nsg11
Nsg12
Nsg13
g14
sba(iamr_util.Actions
AMRAction
p1491
(dp1492
g8
I3
sg9
Nsg10
Nsg11
Nsg12
Nsg13
g14
sba(iamr_util.Actions
AMRAction
p1493
(dp1494
g8
I3
sg9
Nsg10
Nsg11
Nsg12
Nsg13
g14
sba(iamr_util.Actions
AMRAction
p1495
(dp1496
g8
I3
sg9
Nsg10
Nsg11
Nsg12
Nsg13
g14
sba(iamr_util.Actions
AMRAction
p1497
(dp1498
g8
I3
sg9
Nsg10
Nsg11
Nsg12
Nsg13
g14
sba(iamr_util.Actions
AMRAction
p1499
(dp1500
g8
I3
sg9
Nsg10
Nsg11
Nsg12
Nsg13
g14
sba(iamr_util.Actions
AMRAction
p1501
(dp1502
g8
I3
sg9
Nsg10
Nsg11
Nsg12
Nsg13
g14
sba(iamr_util.Actions
AMRAction
p1503
(dp1504
g8
I3
sg9
Nsg10
Nsg11
Nsg12
Nsg13
g14
sba(iamr_util.Actions
AMRAction
p1505
(dp1506
g8
I3
sg9
Nsg10
Nsg11
Nsg12
Nsg13
g14
sba(iamr_util.Actions
AMRAction
p1507
(dp1508
g8
I0
sg9
Nsg10
Nsg11
S'and'
p1509
sg12
g67
sg13
g31
sba(iamr_util.Actions
AMRAction
p1510
(dp1511
g8
I3
sg9
Nsg10
Nsg11
Nsg12
Nsg13
g14
sba(iamr_util.Actions
AMRAction
p1512
(dp1513
g8
I3
sg9
Nsg10
Nsg11
Nsg12
Nsg13
g14
sba(iamr_util.Actions
AMRAction
p1514
(dp1515
g8
I3
sg9
Nsg10
Nsg11
Nsg12
Nsg13
g14
sba(iamr_util.Actions
AMRAction
p1516
(dp1517
g8
I3
sg9
Nsg10
Nsg11
Nsg12
Nsg13
g14
sba(iamr_util.Actions
AMRAction
p1518
(dp1519
g8
I3
sg9
Nsg10
Nsg11
Nsg12
Nsg13
g14
sba(iamr_util.Actions
AMRAction
p1520
(dp1521
g8
I3
sg9
Nsg10
Nsg11
Nsg12
Nsg13
g14
sba(iamr_util.Actions
AMRAction
p1522
(dp1523
g8
I3
sg9
Nsg10
Nsg11
Nsg12
Nsg13
g14
sba(iamr_util.Actions
AMRAction
p1524
(dp1525
g8
I3
sg9
Nsg10
Nsg11
Nsg12
Nsg13
g14
sba(iamr_util.Actions
AMRAction
p1526
(dp1527
g8
I3
sg9
Nsg10
Nsg11
Nsg12
Nsg13
g14
sba(iamr_util.Actions
AMRAction
p1528
(dp1529
g8
I3
sg9
Nsg10
Nsg11
Nsg12
Nsg13
g14
sba(iamr_util.Actions
AMRAction
p1530
(dp1531
g8
I3
sg9
Nsg10
Nsg11
Nsg12
Nsg13
g14
sba(iamr_util.Actions
AMRAction
p1532
(dp1533
g8
I3
sg9
Nsg10
Nsg11
Nsg12
Nsg13
g14
sba(iamr_util.Actions
AMRAction
p1534
(dp1535
g8
I3
sg9
Nsg10
Nsg11
Nsg12
Nsg13
g14
sba(iamr_util.Actions
AMRAction
p1536
(dp1537
g8
I3
sg9
Nsg10
Nsg11
Nsg12
Nsg13
g14
sba(iamr_util.Actions
AMRAction
p1538
(dp1539
g8
I3
sg9
Nsg10
Nsg11
Nsg12
Nsg13
g14
sba(iamr_util.Actions
AMRAction
p1540
(dp1541
g8
I3
sg9
Nsg10
Nsg11
Nsg12
Nsg13
g14
sba(iamr_util.Actions
AMRAction
p1542
(dp1543
g8
I3
sg9
Nsg10
Nsg11
Nsg12
Nsg13
g14
sba(iamr_util.Actions
AMRAction
p1544
(dp1545
g8
I3
sg9
Nsg10
Nsg11
Nsg12
Nsg13
g14
sba(iamr_util.Actions
AMRAction
p1546
(dp1547
g8
I3
sg9
Nsg10
Nsg11
Nsg12
Nsg13
g14
sba(iamr_util.Actions
AMRAction
p1548
(dp1549
g8
I3
sg9
Nsg10
Nsg11
Nsg12
Nsg13
g14
sba(iamr_util.Actions
AMRAction
p1550
(dp1551
g8
I3
sg9
Nsg10
Nsg11
Nsg12
Nsg13
g14
sba(iamr_util.Actions
AMRAction
p1552
(dp1553
g8
I3
sg9
Nsg10
Nsg11
Nsg12
Nsg13
g14
sba(iamr_util.Actions
AMRAction
p1554
(dp1555
g8
I3
sg9
Nsg10
Nsg11
Nsg12
Nsg13
g14
sba(iamr_util.Actions
AMRAction
p1556
(dp1557
g8
I3
sg9
Nsg10
Nsg11
Nsg12
Nsg13
g14
sbaS'(a / and~e.11\n      :op1 (c / continent)\n      :op2 (c2 / country)\n      :op3 (c5 / country)\n      :op4 (c4 / country)\n      :op5 (c9 / country)\n      :op6 (c3 / country))'
p1558
(dp1559
(lp1560
(lp1561
(dp1562
I1
tp1563
tp1564
Rp1565
ag1
(g2
g3
(S"Wi Sung @-@ lac is the head of the South Korean Foreign Ministry 's North American Affairs Bureau ."
p1566
(lp1567
(iamr_util.Actions
AMRAction
p1568
(dp1569
g8
I3
sg9
Nsg10
Nsg11
Nsg12
Nsg13
g14
sba(iamr_util.Actions
AMRAction
p1570
(dp1571
g8
I3
sg9
Nsg10
Nsg11
Nsg12
Nsg13
g14
sba(iamr_util.Actions
AMRAction
p1572
(dp1573
g8
I3
sg9
Nsg10
Nsg11
Nsg12
Nsg13
g14
sba(iamr_util.Actions
AMRAction
p1574
(dp1575
g8
I3
sg9
Nsg10
Nsg11
Nsg12
Nsg13
g14
sba(iamr_util.Actions
AMRAction
p1576
(dp1577
g8
I3
sg9
Nsg10
Nsg11
Nsg12
Nsg13
g14
sba(iamr_util.Actions
AMRAction
p1578
(dp1579
g8
I3
sg9
Nsg10
Nsg11
Nsg12
Nsg13
g14
sba(iamr_util.Actions
AMRAction
p1580
(dp1581
g8
I0
sg9
Nsg10
Nsg11
S'person'
p1582
sg12
S'p2'
p1583
sg13
g31
sba(iamr_util.Actions
AMRAction
p1584
(dp1585
g8
I3
sg9
Nsg10
Nsg11
Nsg12
Nsg13
g14
sba(iamr_util.Actions
AMRAction
p1586
(dp1587
g8
I3
sg9
Nsg10
Nsg11
Nsg12
Nsg13
g14
sba(iamr_util.Actions
AMRAction
p1588
(dp1589
g8
I3
sg9
Nsg10
Nsg11
Nsg12
Nsg13
g14
sba(iamr_util.Actions
AMRAction
p1590
(dp1591
g8
I3
sg9
Nsg10
Nsg11
Nsg12
Nsg13
g14
sba(iamr_util.Actions
AMRAction
p1592
(dp1593
g8
I3
sg9
Nsg10
Nsg11
Nsg12
Nsg13
g14
sba(iamr_util.Actions
AMRAction
p1594
(dp1595
g8
I3
sg9
Nsg10
Nsg11
Nsg12
Nsg13
g14
sba(iamr_util.Actions
AMRAction
p1596
(dp1597
g8
I3
sg9
Nsg10
Nsg11
Nsg12
Nsg13
g14
sba(iamr_util.Actions
AMRAction
p1598
(dp1599
g8
I3
sg9
Nsg10
Nsg11
Nsg12
Nsg13
g14
sba(iamr_util.Actions
AMRAction
p1600
(dp1601
g8
I3
sg9
Nsg10
Nsg11
Nsg12
Nsg13
g14
sba(iamr_util.Actions
AMRAction
p1602
(dp1603
g8
I3
sg9
Nsg10
Nsg11
Nsg12
Nsg13
g14
sba(iamr_util.Actions
AMRAction
p1604
(dp1605
g8
I3
sg9
Nsg10
Nsg11
Nsg12
Nsg13
g14
sba(iamr_util.Actions
AMRAction
p1606
(dp1607
g8
I3
sg9
Nsg10
Nsg11
Nsg12
Nsg13
g14
sbaS'(p2 / person~e.6\n      :ARG0-of~e.6 (h2 / head-01~e.6\n            :ARG1~e.7 (g2 / government-organization\n                  :part-of~e.13 (g / government-organization\n                        :mod (c / country))))\n      :domain~e.4 (p / person))'
p1608
(dp1609
(lp1610
(lp1611
(dp1612
I1
tp1613
tp1614
Rp1615
ag1
(g2
g3
(S'Struck is confident the coalition will settle its disagreements .'
p1616
(lp1617
(iamr_util.Actions
AMRAction
p1618
(dp1619
g8
I3
sg9
Nsg10
Nsg11
Nsg12
Nsg13
g14
sba(iamr_util.Actions
AMRAction
p1620
(dp1621
g8
I3
sg9
Nsg10
Nsg11
Nsg12
Nsg13
g14
sba(iamr_util.Actions
AMRAction
p1622
(dp1623
g8
I0
sg9
Nsg10
Nsg11
S'confident-01'
p1624
sg12
g249
sg13
g31
sba(iamr_util.Actions
AMRAction
p1625
(dp1626
g8
I3
sg9
Nsg10
Nsg11
Nsg12
Nsg13
g14
sba(iamr_util.Actions
AMRAction
p1627
(dp1628
g8
I0
sg9
Nsg10
Nsg11
S'coalition'
p1629
sg12
S'c2'
p1630
sg13
g31
sba(iamr_util.Actions
AMRAction
p1631
(dp1632
g8
I3
sg9
Nsg10
Nsg11
Nsg12
Nsg13
g14
sba(iamr_util.Actions
AMRAction
p1633
(dp1634
g8
I0
sg9
Nsg10
Nsg11
S'settle-02'
p1635
sg12
g179
sg13
g31
sba(iamr_util.Actions
AMRAction
p1636
(dp1637
g8
I1
sg9
Nsg10
Nsg11
S'ARG0'
p1638
sg12
Nsg13
g83
sba(iamr_util.Actions
AMRAction
p1639
(dp1640
g8
I0
sg9
Nsg10
Nsg11
S'coalition'
p1641
sg12
S'COREF_c2_0'
p1642
sg13
g31
sba(iamr_util.Actions
AMRAction
p1643
(dp1644
g8
I0
sg9
Nsg10
Nsg11
S'disagree-01'
p1645
sg12
g266
sg13
g31
sba(iamr_util.Actions
AMRAction
p1646
(dp1647
g8
I1
sg9
Nsg10
Nsg11
S'ARG0'
p1648
sg12
Nsg13
g83
sba(iamr_util.Actions
AMRAction
p1649
(dp1650
g8
I2
sg9
Nsg10
Nsg11
S'ARG1'
p1651
sg12
Nsg13
g107
sba(iamr_util.Actions
AMRAction
p1652
(dp1653
g8
I2
sg9
Nsg10
Nsg11
S'ARG2'
p1654
sg12
Nsg13
g107
sba(iamr_util.Actions
AMRAction
p1655
(dp1656
g8
I3
sg9
Nsg10
Nsg11
Nsg12
Nsg13
g14
sbaS'(c / confident-01~e.2\n      :ARG1 (p / person)\n      :ARG2 (s / settle-02~e.6\n            :ARG0 (c2 / coalition~e.4)\n            :ARG1 (d / disagree-01~e.8\n                  :ARG0~e.7 (COREF_c2_0 / coalition~e.7))))'
p1657
(dp1658
(lp1659
(lp1660
(dp1661
I1
tp1662
tp1663
Rp1664
ag1
(g2
g3
(S"Ali Qaed Sunian al @-@ Harithi 's alias was Abu Ali al @-@ Harithi ."
p1665
(lp1666
(iamr_util.Actions
AMRAction
p1667
(dp1668
g8
I3
sg9
Nsg10
Nsg11
Nsg12
Nsg13
g14
sba(iamr_util.Actions
AMRAction
p1669
(dp1670
g8
I3
sg9
Nsg10
Nsg11
Nsg12
Nsg13
g14
sba(iamr_util.Actions
AMRAction
p1671
(dp1672
g8
I3
sg9
Nsg10
Nsg11
Nsg12
Nsg13
g14
sba(iamr_util.Actions
AMRAction
p1673
(dp1674
g8
I3
sg9
Nsg10
Nsg11
Nsg12
Nsg13
g14
sba(iamr_util.Actions
AMRAction
p1675
(dp1676
g8
I3
sg9
Nsg10
Nsg11
Nsg12
Nsg13
g14
sba(iamr_util.Actions
AMRAction
p1677
(dp1678
g8
I3
sg9
Nsg10
Nsg11
Nsg12
Nsg13
g14
sba(iamr_util.Actions
AMRAction
p1679
(dp1680
g8
I3
sg9
Nsg10
Nsg11
Nsg12
Nsg13
g14
sba(iamr_util.Actions
AMRAction
p1681
(dp1682
g8
I0
sg9
Nsg10
Nsg11
S'alias'
p1683
sg12
g67
sg13
g31
sba(iamr_util.Actions
AMRAction
p1684
(dp1685
g8
I3
sg9
Nsg10
Nsg11
Nsg12
Nsg13
g14
sba(iamr_util.Actions
AMRAction
p1686
(dp1687
g8
I3
sg9
Nsg10
Nsg11
Nsg12
Nsg13
g14
sba(iamr_util.Actions
AMRAction
p1688
(dp1689
g8
I3
sg9
Nsg10
Nsg11
Nsg12
Nsg13
g14
sba(iamr_util.Actions
AMRAction
p1690
(dp1691
g8
I3
sg9
Nsg10
Nsg11
Nsg12
Nsg13
g14
sba(iamr_util.Actions
AMRAction
p1692
(dp1693
g8
I3
sg9
Nsg10
Nsg11
Nsg12
Nsg13
g14
sba(iamr_util.Actions
AMRAction
p1694
(dp1695
g8
I3
sg9
Nsg10
Nsg11
Nsg12
Nsg13
g14
sba(iamr_util.Actions
AMRAction
p1696
(dp1697
g8
I3
sg9
Nsg10
Nsg11
Nsg12
Nsg13
g14
sbaS'(n2 / name :op1 "Abu"~e.9 :op2 "Ali"~e.0,10 :op3 "al-Harithi"~e.11,13\n      :domain~e.6,8 (a / alias~e.7\n            :poss~e.6 (p2 / person)))'
p1698
(dp1699
(lp1700
(lp1701
(dp1702
I1
tp1703
tp1704
Rp1705
ag1
(g2
g3
(S'The company Promos stated that it has passed on to Hynix its expertise in distance-quantity ( 300 millimeter ) production .'
p1706
(lp1707
(iamr_util.Actions
AMRAction
p1708
(dp1709
g8
I3
sg9
Nsg10
Nsg11
Nsg12
Nsg13
g14
sba(iamr_util.Actions
AMRAction
p1710
(dp1711
g8
I0
sg9
Nsg10
Nsg11
S'company'
p1712
sg12
S'c2'
p1713
sg13
g31
sba(iamr_util.Actions
AMRAction
p1714
(dp1715
g8
I3
sg9
Nsg10
Nsg11
Nsg12
Nsg13
g14
sba(iamr_util.Actions
AMRAction
p1716
(dp1717
g8
I0
sg9
Nsg10
Nsg11
S'state-01'
p1718
sg12
g179
sg13
g31
sba(iamr_util.Actions
AMRAction
p1719
(dp1720
g8
I3
sg9
Nsg10
Nsg11
Nsg12
Nsg13
g14
sba(iamr_util.Actions
AMRAction
p1721
(dp1722
g8
I0
sg9
Nsg10
Nsg11
S'company'
p1723
sg12
S'COREF_c_0'
p1724
sg13
g31
sba(iamr_util.Actions
AMRAction
p1725
(dp1726
g8
I3
sg9
Nsg10
Nsg11
Nsg12
Nsg13
g14
sba(iamr_util.Actions
AMRAction
p1727
(dp1728
g8
I0
sg9
Nsg10
Nsg11
S'pass-on-09'
p1729
sg12
g183
sg13
g31
sba(iamr_util.Actions
AMRAction
p1730
(dp1731
g8
I1
sg9
Nsg10
Nsg11
S'ARG0'
p1732
sg12
Nsg13
g83
sba(iamr_util.Actions
AMRAction
p1733
(dp1734
g8
I4
sg9
Nsg10
Nsg11
Nsg12
Nsg13
S'SW'
p1735
sba(iamr_util.Actions
AMRAction
p1736
(dp1737
g8
I1
sg9
Nsg10
Nsg11
S'ARG2'
p1738
sg12
Nsg13
g83
sba(iamr_util.Actions
AMRAction
p1739
(dp1740
g8
I3
sg9
Nsg10
Nsg11
Nsg12
Nsg13
g14
sba(iamr_util.Actions
AMRAction
p1741
(dp1742
g8
I3
sg9
Nsg10
Nsg11
Nsg12
Nsg13
g14
sba(iamr_util.Actions
AMRAction
p1743
(dp1744
g8
I3
sg9
Nsg10
Nsg11
Nsg12
Nsg13
g14
sba(iamr_util.Actions
AMRAction
p1745
(dp1746
g8
I0
sg9
Nsg10
Nsg11
S'company'
p1747
sg12
S'COREF_c_1'
p1748
sg13
g31
sba(iamr_util.Actions
AMRAction
p1749
(dp1750
g8
I0
sg9
Nsg10
Nsg11
S'expertise'
p1751
sg12
g600
sg13
g31
sba(iamr_util.Actions
AMRAction
p1752
(dp1753
g8
I1
sg9
Nsg10
Nsg11
S'poss'
p1754
sg12
Nsg13
g83
sba(iamr_util.Actions
AMRAction
p1755
(dp1756
g8
I3
sg9
Nsg10
Nsg11
Nsg12
Nsg13
g14
sba(iamr_util.Actions
AMRAction
p1757
(dp1758
g8
I0
sg9
Nsg10
Nsg11
S'distance-quantity'
p1759
sg12
g266
sg13
g31
sba(iamr_util.Actions
AMRAction
p1760
(dp1761
g8
I3
sg9
Nsg10
Nsg11
Nsg12
Nsg13
g14
sba(iamr_util.Actions
AMRAction
p1762
(dp1763
g8
I3
sg9
Nsg10
Nsg11
Nsg12
Nsg13
g14
sba(iamr_util.Actions
AMRAction
p1764
(dp1765
g8
I3
sg9
Nsg10
Nsg11
Nsg12
Nsg13
g14
sba(iamr_util.Actions
AMRAction
p1766
(dp1767
g8
I3
sg9
Nsg10
Nsg11
Nsg12
Nsg13
g14
sba(iamr_util.Actions
AMRAction
p1768
(dp1769
g8
I0
sg9
Nsg10
Nsg11
S'produce-01'
p1770
sg12
S'p2'
p1771
sg13
g31
sba(iamr_util.Actions
AMRAction
p1772
(dp1773
g8
I1
sg9
Nsg10
Nsg11
S'mod'
p1774
sg12
Nsg13
g83
sba(iamr_util.Actions
AMRAction
p1775
(dp1776
g8
I2
sg9
Nsg10
Nsg11
S'topic'
p1777
sg12
Nsg13
g107
sba(iamr_util.Actions
AMRAction
p1778
(dp1779
g8
I2
sg9
Nsg10
Nsg11
S'ARG1'
p1780
sg12
Nsg13
g107
sba(iamr_util.Actions
AMRAction
p1781
(dp1782
g8
I2
sg9
Nsg10
Nsg11
S'ARG1'
p1783
sg12
Nsg13
g107
sba(iamr_util.Actions
AMRAction
p1784
(dp1785
g8
I3
sg9
Nsg10
Nsg11
Nsg12
Nsg13
g14
sbaS'(s / state-01~e.3\n      :ARG0 (c / company~e.1)\n      :ARG1~e.4 (p / pass-on-09~e.7,8\n            :ARG0 (COREF_c_0 / company~e.5)\n            :ARG1 (e / expertise~e.12\n                  :topic~e.13 (p2 / produce-01~e.21\n                        :mod (d / distance-quantity :quant 12~e.14\n                              :unit (i / inch~e.16)))\n                  :poss~e.11 (COREF_c_1 / company~e.11))\n            :ARG2 (c2 / company~e.1)))'
p1786
(dp1787
(lp1788
(lp1789
(dp1790
I1
tp1791
tp1792
Rp1793
ag1
(g2
g3
(S'Tsao said no formal written agreements had been signed .'
p1794
(lp1795
(iamr_util.Actions
AMRAction
p1796
(dp1797
g8
I3
sg9
Nsg10
Nsg11
Nsg12
Nsg13
g14
sba(iamr_util.Actions
AMRAction
p1798
(dp1799
g8
I0
sg9
Nsg10
Nsg11
S'say-01'
p1800
sg12
g179
sg13
g31
sba(iamr_util.Actions
AMRAction
p1801
(dp1802
g8
I0
sg9
Nsg10
Nsg11
g1
(g137
g138
g139
tp1803
Rp1804
sg12
g1804
sg13
g31
sba(iamr_util.Actions
AMRAction
p1805
(dp1806
g8
I0
sg9
Nsg10
Nsg11
S'formal'
p1807
sg12
S'f'
p1808
sg13
g31
sba(iamr_util.Actions
AMRAction
p1809
(dp1810
g8
I0
sg9
Nsg10
Nsg11
S'write-01'
p1811
sg12
g1444
sg13
g31
sba(iamr_util.Actions
AMRAction
p1812
(dp1813
g8
I0
sg9
Nsg10
Nsg11
S'agree-01'
p1814
sg12
g67
sg13
g31
sba(iamr_util.Actions
AMRAction
p1815
(dp1816
g8
I1
sg9
Nsg10
Nsg11
S'ARG1-of'
p1817
sg12
Nsg13
g83
sba(iamr_util.Actions
AMRAction
p1818
(dp1819
g8
I1
sg9
Nsg10
Nsg11
S'mod'
p1820
sg12
Nsg13
g83
sba(iamr_util.Actions
AMRAction
p1821
(dp1822
g8
I3
sg9
Nsg10
Nsg11
Nsg12
Nsg13
g14
sba(iamr_util.Actions
AMRAction
p1823
(dp1824
g8
I3
sg9
Nsg10
Nsg11
Nsg12
Nsg13
g14
sba(iamr_util.Actions
AMRAction
p1825
(dp1826
g8
I0
sg9
Nsg10
Nsg11
S'sign-02'
p1827
sg12
S's2'
p1828
sg13
g31
sba(iamr_util.Actions
AMRAction
p1829
(dp1830
g8
I1
sg9
Nsg10
Nsg11
S'ARG1'
p1831
sg12
Nsg13
g83
sba(iamr_util.Actions
AMRAction
p1832
(dp1833
g8
I1
sg9
Nsg10
Nsg11
S'polarity'
p1834
sg12
Nsg13
g83
sba(iamr_util.Actions
AMRAction
p1835
(dp1836
g8
I2
sg9
Nsg10
Nsg11
S'ARG1'
p1837
sg12
Nsg13
g107
sba(iamr_util.Actions
AMRAction
p1838
(dp1839
g8
I3
sg9
Nsg10
Nsg11
Nsg12
Nsg13
g14
sbaS'(s / say-01~e.1\n      :ARG0 (p / person)\n      :ARG1 (s2 / sign-02~e.8 :polarity~e.2 -~e.2\n            :ARG1 (a / agree-01~e.5\n                  :ARG1-of (w / write-01~e.4)\n                  :mod (f / formal~e.3))))'
p1840
(dp1841
(lp1842
(lp1843
(dp1844
I1
tp1845
tp1846
Rp1847
ag1
(g2
g3
(S'Iran insists that nuclear program exclusively develops nuclear energy for the growing Iranian population .'
p1848
(lp1849
(iamr_util.Actions
AMRAction
p1850
(dp1851
g8
I3
sg9
Nsg10
Nsg11
Nsg12
Nsg13
g14
sba(iamr_util.Actions
AMRAction
p1852
(dp1853
g8
I0
sg9
Nsg10
Nsg11
S'insist-01'
p1854
sg12
g75
sg13
g31
sba(iamr_util.Actions
AMRAction
p1855
(dp1856
g8
I3
sg9
Nsg10
Nsg11
Nsg12
Nsg13
g14
sba(iamr_util.Actions
AMRAction
p1857
(dp1858
g8
I0
sg9
Nsg10
Nsg11
S'nucleus'
p1859
sg12
S'n2'
p1860
sg13
g31
sba(iamr_util.Actions
AMRAction
p1861
(dp1862
g8
I0
sg9
Nsg10
Nsg11
S'program'
p1863
sg12
g183
sg13
g31
sba(iamr_util.Actions
AMRAction
p1864
(dp1865
g8
I1
sg9
Nsg10
Nsg11
S'mod'
p1866
sg12
Nsg13
g83
sba(iamr_util.Actions
AMRAction
p1867
(dp1868
g8
I0
sg9
Nsg10
Nsg11
S'exclusive-02'
p1869
sg12
g600
sg13
g31
sba(iamr_util.Actions
AMRAction
p1870
(dp1871
g8
I0
sg9
Nsg10
Nsg11
S'develop-02'
p1872
sg12
g266
sg13
g31
sba(iamr_util.Actions
AMRAction
p1873
(dp1874
g8
I1
sg9
Nsg10
Nsg11
S'manner'
p1875
sg12
Nsg13
g83
sba(iamr_util.Actions
AMRAction
p1876
(dp1877
g8
I1
sg9
Nsg10
Nsg11
S'ARG0'
p1878
sg12
Nsg13
g83
sba(iamr_util.Actions
AMRAction
p1879
(dp1880
g8
I0
sg9
Nsg10
Nsg11
S'nucleus'
p1881
sg12
S'COREF_n2_0'
p1882
sg13
g31
sba(iamr_util.Actions
AMRAction
p1883
(dp1884
g8
I0
sg9
Nsg10
Nsg11
S'energy'
p1885
sg12
S'e2'
p1886
sg13
g31
sba(iamr_util.Actions
AMRAction
p1887
(dp1888
g8
I1
sg9
Nsg10
Nsg11
S'mod'
p1889
sg12
Nsg13
g83
sba(iamr_util.Actions
AMRAction
p1890
(dp1891
g8
I2
sg9
Nsg10
Nsg11
S'ARG1'
p1892
sg12
Nsg13
g107
sba(iamr_util.Actions
AMRAction
p1893
(dp1894
g8
I3
sg9
Nsg10
Nsg11
Nsg12
Nsg13
g14
sba(iamr_util.Actions
AMRAction
p1895
(dp1896
g8
I3
sg9
Nsg10
Nsg11
Nsg12
Nsg13
g14
sba(iamr_util.Actions
AMRAction
p1897
(dp1898
g8
I0
sg9
Nsg10
Nsg11
S'grow-01'
p1899
sg12
S'g2'
p1900
sg13
g31
sba(iamr_util.Actions
AMRAction
p1901
(dp1902
g8
I0
sg9
Nsg10
Nsg11
S'country'
p1903
sg12
S'COREF_c_0'
p1904
sg13
g31
sba(iamr_util.Actions
AMRAction
p1905
(dp1906
g8
I0
sg9
Nsg10
Nsg11
S'population'
p1907
sg12
S'p2'
p1908
sg13
g31
sba(iamr_util.Actions
AMRAction
p1909
(dp1910
g8
I1
sg9
Nsg10
Nsg11
S'mod'
p1911
sg12
Nsg13
g83
sba(iamr_util.Actions
AMRAction
p1912
(dp1913
g8
I1
sg9
Nsg10
Nsg11
S'ARG1-of'
p1914
sg12
Nsg13
g83
sba(iamr_util.Actions
AMRAction
p1915
(dp1916
g8
I2
sg9
Nsg10
Nsg11
S'ARG3'
p1917
sg12
Nsg13
g107
sba(iamr_util.Actions
AMRAction
p1918
(dp1919
g8
I2
sg9
Nsg10
Nsg11
S'ARG1'
p1920
sg12
Nsg13
g107
sba(iamr_util.Actions
AMRAction
p1921
(dp1922
g8
I3
sg9
Nsg10
Nsg11
Nsg12
Nsg13
g14
sbaS'(i / insist-01~e.1\n      :ARG0 (c / country)\n      :ARG1~e.2 (d / develop-02~e.6\n            :ARG0 (p / program~e.4\n                  :mod (n2 / nucleus~e.3))\n            :ARG1 (e2 / energy~e.8\n                  :mod (COREF_n2_0 / nucleus~e.7))\n            :ARG3~e.9 (p2 / population~e.13\n                  :mod (COREF_c_0 / country~e.12)\n                  :ARG1-of (g2 / grow-01~e.11))\n            :manner (e / exclusive-02~e.5)))'
p1923
(dp1924
(lp1925
(lp1926
(dp1927
I1
tp1928
tp1929
Rp1930
ag1
(g2
g3
(S'The countries oppose the weaponization of space and an arms race in space .'
p1931
(lp1932
(iamr_util.Actions
AMRAction
p1933
(dp1934
g8
I3
sg9
Nsg10
Nsg11
Nsg12
Nsg13
g14
sba(iamr_util.Actions
AMRAction
p1935
(dp1936
g8
I0
sg9
Nsg10
Nsg11
S'country'
p1937
sg12
g249
sg13
g31
sba(iamr_util.Actions
AMRAction
p1938
(dp1939
g8
I0
sg9
Nsg10
Nsg11
S'oppose-01'
p1940
sg12
g504
sg13
g31
sba(iamr_util.Actions
AMRAction
p1941
(dp1942
g8
I1
sg9
Nsg10
Nsg11
S'ARG0'
p1943
sg12
Nsg13
g83
sba(iamr_util.Actions
AMRAction
p1944
(dp1945
g8
I3
sg9
Nsg10
Nsg11
Nsg12
Nsg13
g14
sba(iamr_util.Actions
AMRAction
p1946
(dp1947
g8
I0
sg9
Nsg10
Nsg11
S'weaponize-01'
p1948
sg12
g1444
sg13
g31
sba(iamr_util.Actions
AMRAction
p1949
(dp1950
g8
I3
sg9
Nsg10
Nsg11
Nsg12
Nsg13
g14
sba(iamr_util.Actions
AMRAction
p1951
(dp1952
g8
I0
sg9
Nsg10
Nsg11
S'space'
p1953
sg12
g179
sg13
g31
sba(iamr_util.Actions
AMRAction
p1954
(dp1955
g8
I2
sg9
Nsg10
Nsg11
S'ARG1'
p1956
sg12
Nsg13
g107
sba(iamr_util.Actions
AMRAction
p1957
(dp1958
g8
I0
sg9
Nsg10
Nsg11
S'and'
p1959
sg12
g67
sg13
g31
sba(iamr_util.Actions
AMRAction
p1960
(dp1961
g8
I1
sg9
Nsg10
Nsg11
S'op1'
p1962
sg12
Nsg13
g83
sba(iamr_util.Actions
AMRAction
p1963
(dp1964
g8
I3
sg9
Nsg10
Nsg11
Nsg12
Nsg13
g14
sba(iamr_util.Actions
AMRAction
p1965
(dp1966
g8
I0
sg9
Nsg10
Nsg11
S'arm'
p1967
sg12
S'a2'
p1968
sg13
g31
sba(iamr_util.Actions
AMRAction
p1969
(dp1970
g8
I0
sg9
Nsg10
Nsg11
S'race-02'
p1971
sg12
g30
sg13
g31
sba(iamr_util.Actions
AMRAction
p1972
(dp1973
g8
I1
sg9
Nsg10
Nsg11
S'ARG3'
p1974
sg12
Nsg13
g83
sba(iamr_util.Actions
AMRAction
p1975
(dp1976
g8
I3
sg9
Nsg10
Nsg11
Nsg12
Nsg13
g14
sba(iamr_util.Actions
AMRAction
p1977
(dp1978
g8
I0
sg9
Nsg10
Nsg11
S'space'
p1979
sg12
S'COREF_s_0'
p1980
sg13
g31
sba(iamr_util.Actions
AMRAction
p1981
(dp1982
g8
I2
sg9
Nsg10
Nsg11
S'location'
p1983
sg12
Nsg13
g107
sba(iamr_util.Actions
AMRAction
p1984
(dp1985
g8
I2
sg9
Nsg10
Nsg11
S'op2'
p1986
sg12
Nsg13
g107
sba(iamr_util.Actions
AMRAction
p1987
(dp1988
g8
I2
sg9
Nsg10
Nsg11
S'ARG1'
p1989
sg12
Nsg13
g107
sba(iamr_util.Actions
AMRAction
p1990
(dp1991
g8
I3
sg9
Nsg10
Nsg11
Nsg12
Nsg13
g14
sbaS'(o / oppose-01~e.2\n      :ARG0 (c / country~e.1)\n      :ARG1 (a / and~e.7\n            :op1 (w / weaponize-01~e.4\n                  :ARG1~e.5 (s / space~e.6))\n            :op2 (r / race-02~e.10\n                  :ARG3 (a2 / arm~e.9)\n                  :location~e.11 (COREF_s_0 / space~e.12))))'
p1992
(dp1993
(lp1994
(lp1995
(dp1996
I1
tp1997
tp1998
Rp1999
ag1
(g2
g3
(S'Jiang Yu said she was not aware of the specific information concerning space debris .'
p2000
(lp2001
(iamr_util.Actions
AMRAction
p2002
(dp2003
g8
I3
sg9
Nsg10
Nsg11
Nsg12
Nsg13
g14
sba(iamr_util.Actions
AMRAction
p2004
(dp2005
g8
I3
sg9
Nsg10
Nsg11
Nsg12
Nsg13
g14
sba(iamr_util.Actions
AMRAction
p2006
(dp2007
g8
I0
sg9
Nsg10
Nsg11
S'say-01'
p2008
sg12
g179
sg13
g31
sba(iamr_util.Actions
AMRAction
p2009
(dp2010
g8
I0
sg9
Nsg10
Nsg11
S'person'
p2011
sg12
S'COREF_p_0'
p2012
sg13
g31
sba(iamr_util.Actions
AMRAction
p2013
(dp2014
g8
I3
sg9
Nsg10
Nsg11
Nsg12
Nsg13
g14
sba(iamr_util.Actions
AMRAction
p2015
(dp2016
g8
I0
sg9
Nsg10
Nsg11
g1
(g137
g138
g139
tp2017
Rp2018
sg12
g2018
sg13
g31
sba(iamr_util.Actions
AMRAction
p2019
(dp2020
g8
I0
sg9
Nsg10
Nsg11
S'realize-01'
p2021
sg12
g30
sg13
g31
sba(iamr_util.Actions
AMRAction
p2022
(dp2023
g8
I1
sg9
Nsg10
Nsg11
S'polarity'
p2024
sg12
Nsg13
g83
sba(iamr_util.Actions
AMRAction
p2025
(dp2026
g8
I1
sg9
Nsg10
Nsg11
S'ARG0'
p2027
sg12
Nsg13
g83
sba(iamr_util.Actions
AMRAction
p2028
(dp2029
g8
I3
sg9
Nsg10
Nsg11
Nsg12
Nsg13
g14
sba(iamr_util.Actions
AMRAction
p2030
(dp2031
g8
I3
sg9
Nsg10
Nsg11
Nsg12
Nsg13
g14
sba(iamr_util.Actions
AMRAction
p2032
(dp2033
g8
I0
sg9
Nsg10
Nsg11
S'specific-02'
p2034
sg12
S's2'
p2035
sg13
g31
sba(iamr_util.Actions
AMRAction
p2036
(dp2037
g8
I0
sg9
Nsg10
Nsg11
S'information'
p2038
sg12
g75
sg13
g31
sba(iamr_util.Actions
AMRAction
p2039
(dp2040
g8
I1
sg9
Nsg10
Nsg11
S'ARG1-of'
p2041
sg12
Nsg13
g83
sba(iamr_util.Actions
AMRAction
p2042
(dp2043
g8
I0
sg9
Nsg10
Nsg11
S'concern-02'
p2044
sg12
g249
sg13
g31
sba(iamr_util.Actions
AMRAction
p2045
(dp2046
g8
I0
sg9
Nsg10
Nsg11
S'space'
p2047
sg12
S's3'
p2048
sg13
g31
sba(iamr_util.Actions
AMRAction
p2049
(dp2050
g8
I0
sg9
Nsg10
Nsg11
S'debris'
p2051
sg12
g266
sg13
g31
sba(iamr_util.Actions
AMRAction
p2052
(dp2053
g8
I1
sg9
Nsg10
Nsg11
S'mod'
p2054
sg12
Nsg13
g83
sba(iamr_util.Actions
AMRAction
p2055
(dp2056
g8
I2
sg9
Nsg10
Nsg11
S'ARG1'
p2057
sg12
Nsg13
g107
sba(iamr_util.Actions
AMRAction
p2058
(dp2059
g8
I2
sg9
Nsg10
Nsg11
S'ARG0-of'
p2060
sg12
Nsg13
g107
sba(iamr_util.Actions
AMRAction
p2061
(dp2062
g8
I2
sg9
Nsg10
Nsg11
S'ARG1'
p2063
sg12
Nsg13
g107
sba(iamr_util.Actions
AMRAction
p2064
(dp2065
g8
I2
sg9
Nsg10
Nsg11
S'ARG1'
p2066
sg12
Nsg13
g107
sba(iamr_util.Actions
AMRAction
p2067
(dp2068
g8
I3
sg9
Nsg10
Nsg11
Nsg12
Nsg13
g14
sbaS'(s / say-01~e.2\n      :ARG0 (p / person)\n      :ARG1 (r / realize-01~e.6 :polarity~e.5 -~e.5\n            :ARG0 (COREF_p_0 / person~e.3)\n            :ARG1~e.7 (i / information~e.10\n                  :ARG1-of (s2 / specific-02~e.9)\n                  :ARG0-of (c / concern-02~e.11\n                        :ARG1 (d / debris~e.13\n                              :mod (s3 / space~e.12))))))'
p2069
(dp2070
(lp2071
(lp2072
(dp2073
I1
tp2074
tp2075
Rp2076
ag1
(g2
g3
(S'Vohu stated that the security of customer accounts was not compromised in the attacks .'
p2077
(lp2078
(iamr_util.Actions
AMRAction
p2079
(dp2080
g8
I3
sg9
Nsg10
Nsg11
Nsg12
Nsg13
g14
sba(iamr_util.Actions
AMRAction
p2081
(dp2082
g8
I0
sg9
Nsg10
Nsg11
S'state-01'
p2083
sg12
g179
sg13
g31
sba(iamr_util.Actions
AMRAction
p2084
(dp2085
g8
I3
sg9
Nsg10
Nsg11
Nsg12
Nsg13
g14
sba(iamr_util.Actions
AMRAction
p2086
(dp2087
g8
I3
sg9
Nsg10
Nsg11
Nsg12
Nsg13
g14
sba(iamr_util.Actions
AMRAction
p2088
(dp2089
g8
I0
sg9
Nsg10
Nsg11
S'security'
p2090
sg12
S's2'
p2091
sg13
g31
sba(iamr_util.Actions
AMRAction
p2092
(dp2093
g8
I3
sg9
Nsg10
Nsg11
Nsg12
Nsg13
g14
sba(iamr_util.Actions
AMRAction
p2094
(dp2095
g8
I0
sg9
Nsg10
Nsg11
S'customer'
p2096
sg12
S'c2'
p2097
sg13
g31
sba(iamr_util.Actions
AMRAction
p2098
(dp2099
g8
I0
sg9
Nsg10
Nsg11
S'account'
p2100
sg12
g67
sg13
g31
sba(iamr_util.Actions
AMRAction
p2101
(dp2102
g8
I1
sg9
Nsg10
Nsg11
S'poss'
p2103
sg12
Nsg13
g83
sba(iamr_util.Actions
AMRAction
p2104
(dp2105
g8
I2
sg9
Nsg10
Nsg11
S'poss'
p2106
sg12
Nsg13
g107
sba(iamr_util.Actions
AMRAction
p2107
(dp2108
g8
I3
sg9
Nsg10
Nsg11
Nsg12
Nsg13
g14
sba(iamr_util.Actions
AMRAction
p2109
(dp2110
g8
I0
sg9
Nsg10
Nsg11
g1
(g137
g138
g139
tp2111
Rp2112
sg12
g2112
sg13
g31
sba(iamr_util.Actions
AMRAction
p2113
(dp2114
g8
I0
sg9
Nsg10
Nsg11
S'compromise-02'
p2115
sg12
g249
sg13
g31
sba(iamr_util.Actions
AMRAction
p2116
(dp2117
g8
I1
sg9
Nsg10
Nsg11
S'polarity'
p2118
sg12
Nsg13
g83
sba(iamr_util.Actions
AMRAction
p2119
(dp2120
g8
I1
sg9
Nsg10
Nsg11
S'ARG1'
p2121
sg12
Nsg13
g83
sba(iamr_util.Actions
AMRAction
p2122
(dp2123
g8
I3
sg9
Nsg10
Nsg11
Nsg12
Nsg13
g14
sba(iamr_util.Actions
AMRAction
p2124
(dp2125
g8
I3
sg9
Nsg10
Nsg11
Nsg12
Nsg13
g14
sba(iamr_util.Actions
AMRAction
p2126
(dp2127
g8
I0
sg9
Nsg10
Nsg11
S'attack-01'
p2128
sg12
S'a2'
p2129
sg13
g31
sba(iamr_util.Actions
AMRAction
p2130
(dp2131
g8
I2
sg9
Nsg10
Nsg11
S'time'
p2132
sg12
Nsg13
g107
sba(iamr_util.Actions
AMRAction
p2133
(dp2134
g8
I2
sg9
Nsg10
Nsg11
S'ARG1'
p2135
sg12
Nsg13
g107
sba(iamr_util.Actions
AMRAction
p2136
(dp2137
g8
I3
sg9
Nsg10
Nsg11
Nsg12
Nsg13
g14
sbaS'(s / state-01~e.1\n      :ARG0 (p / person)\n      :ARG1~e.2 (c / compromise-02~e.10 :polarity~e.9 -~e.9\n            :ARG1 (s2 / security~e.4\n                  :poss~e.5 (a / account~e.7\n                        :poss (c2 / customer~e.6)))\n            :time~e.11 (a2 / attack-01~e.13)))'
p2138
(dp2139
(lp2140
(lp2141
(dp2142
I1
tp2143
tp2144
Rp2145
ag1
(g2
g3
(S'Lang stated that Lang predicts an interesting discussion on cyber attacks .'
p2146
(lp2147
(iamr_util.Actions
AMRAction
p2148
(dp2149
g8
I3
sg9
Nsg10
Nsg11
Nsg12
Nsg13
g14
sba(iamr_util.Actions
AMRAction
p2150
(dp2151
g8
I0
sg9
Nsg10
Nsg11
S'state-01'
p2152
sg12
g179
sg13
g31
sba(iamr_util.Actions
AMRAction
p2153
(dp2154
g8
I3
sg9
Nsg10
Nsg11
Nsg12
Nsg13
g14
sba(iamr_util.Actions
AMRAction
p2155
(dp2156
g8
I0
sg9
Nsg10
Nsg11
S'person'
p2157
sg12
S'COREF_p_0'
p2158
sg13
g31
sba(iamr_util.Actions
AMRAction
p2159
(dp2160
g8
I0
sg9
Nsg10
Nsg11
S'predict-01'
p2161
sg12
S'p2'
p2162
sg13
g31
sba(iamr_util.Actions
AMRAction
p2163
(dp2164
g8
I1
sg9
Nsg10
Nsg11
S'ARG0'
p2165
sg12
Nsg13
g83
sba(iamr_util.Actions
AMRAction
p2166
(dp2167
g8
I3
sg9
Nsg10
Nsg11
Nsg12
Nsg13
g14
sba(iamr_util.Actions
AMRAction
p2168
(dp2169
g8
I0
sg9
Nsg10
Nsg11
S'interesting'
p2170
sg12
g75
sg13
g31
sba(iamr_util.Actions
AMRAction
p2171
(dp2172
g8
I0
sg9
Nsg10
Nsg11
S'discuss-01'
p2173
sg12
g266
sg13
g31
sba(iamr_util.Actions
AMRAction
p2174
(dp2175
g8
I1
sg9
Nsg10
Nsg11
S'mod'
p2176
sg12
Nsg13
g83
sba(iamr_util.Actions
AMRAction
p2177
(dp2178
g8
I3
sg9
Nsg10
Nsg11
Nsg12
Nsg13
g14
sba(iamr_util.Actions
AMRAction
p2179
(dp2180
g8
I0
sg9
Nsg10
Nsg11
S'cyber'
p2181
sg12
g249
sg13
g31
sba(iamr_util.Actions
AMRAction
p2182
(dp2183
g8
I0
sg9
Nsg10
Nsg11
S'attack-01'
p2184
sg12
g67
sg13
g31
sba(iamr_util.Actions
AMRAction
p2185
(dp2186
g8
I1
sg9
Nsg10
Nsg11
S'mod'
p2187
sg12
Nsg13
g83
sba(iamr_util.Actions
AMRAction
p2188
(dp2189
g8
I2
sg9
Nsg10
Nsg11
S'ARG1'
p2190
sg12
Nsg13
g107
sba(iamr_util.Actions
AMRAction
p2191
(dp2192
g8
I2
sg9
Nsg10
Nsg11
S'ARG1'
p2193
sg12
Nsg13
g107
sba(iamr_util.Actions
AMRAction
p2194
(dp2195
g8
I2
sg9
Nsg10
Nsg11
S'ARG1'
p2196
sg12
Nsg13
g107
sba(iamr_util.Actions
AMRAction
p2197
(dp2198
g8
I3
sg9
Nsg10
Nsg11
Nsg12
Nsg13
g14
sbaS'(s / state-01~e.1\n      :ARG0 (p / person)\n      :ARG1~e.2 (p2 / predict-01~e.4\n            :ARG0 (COREF_p_0 / person~e.3)\n            :ARG1 (d / discuss-01~e.7\n                  :ARG1~e.8 (a / attack-01~e.10\n                        :mod (c / cyber~e.9))\n                  :mod (i / interesting~e.6))))'
p2199
(dp2200
(lp2201
(lp2202
(dp2203
I1
tp2204
tp2205
Rp2206
ag1
(g2
g3
(S'The Russian Foreign Ministry stated that Russia has not suspended dialogue .'
p2207
(lp2208
(iamr_util.Actions
AMRAction
p2209
(dp2210
g8
I3
sg9
Nsg10
Nsg11
Nsg12
Nsg13
g14
sba(iamr_util.Actions
AMRAction
p2211
(dp2212
g8
I3
sg9
Nsg10
Nsg11
Nsg12
Nsg13
g14
sba(iamr_util.Actions
AMRAction
p2213
(dp2214
g8
I3
sg9
Nsg10
Nsg11
Nsg12
Nsg13
g14
sba(iamr_util.Actions
AMRAction
p2215
(dp2216
g8
I3
sg9
Nsg10
Nsg11
Nsg12
Nsg13
g14
sba(iamr_util.Actions
AMRAction
p2217
(dp2218
g8
I0
sg9
Nsg10
Nsg11
S'state-01'
p2219
sg12
g179
sg13
g31
sba(iamr_util.Actions
AMRAction
p2220
(dp2221
g8
I3
sg9
Nsg10
Nsg11
Nsg12
Nsg13
g14
sba(iamr_util.Actions
AMRAction
p2222
(dp2223
g8
I0
sg9
Nsg10
Nsg11
S'country'
p2224
sg12
S'COREF_c2_0'
p2225
sg13
g31
sba(iamr_util.Actions
AMRAction
p2226
(dp2227
g8
I3
sg9
Nsg10
Nsg11
Nsg12
Nsg13
g14
sba(iamr_util.Actions
AMRAction
p2228
(dp2229
g8
I0
sg9
Nsg10
Nsg11
g1
(g137
g138
g139
tp2230
Rp2231
sg12
g2231
sg13
g31
sba(iamr_util.Actions
AMRAction
p2232
(dp2233
g8
I0
sg9
Nsg10
Nsg11
S'suspend-01'
p2234
sg12
S's2'
p2235
sg13
g31
sba(iamr_util.Actions
AMRAction
p2236
(dp2237
g8
I1
sg9
Nsg10
Nsg11
S'polarity'
p2238
sg12
Nsg13
g83
sba(iamr_util.Actions
AMRAction
p2239
(dp2240
g8
I1
sg9
Nsg10
Nsg11
S'ARG0'
p2241
sg12
Nsg13
g83
sba(iamr_util.Actions
AMRAction
p2242
(dp2243
g8
I0
sg9
Nsg10
Nsg11
S'dialogue-01'
p2244
sg12
g266
sg13
g31
sba(iamr_util.Actions
AMRAction
p2245
(dp2246
g8
I2
sg9
Nsg10
Nsg11
S'ARG1'
p2247
sg12
Nsg13
g107
sba(iamr_util.Actions
AMRAction
p2248
(dp2249
g8
I2
sg9
Nsg10
Nsg11
S'ARG1'
p2250
sg12
Nsg13
g107
sba(iamr_util.Actions
AMRAction
p2251
(dp2252
g8
I3
sg9
Nsg10
Nsg11
Nsg12
Nsg13
g14
sbaS'(s / state-01~e.4\n      :ARG0 (g / government-organization\n            :mod (c2 / country))\n      :ARG1~e.5 (s2 / suspend-01~e.9 :polarity~e.8 -~e.8\n            :ARG0 (COREF_c2_0 / country~e.6)\n            :ARG1 (d / dialogue-01~e.10)))'
p2253
(dp2254
(lp2255
(lp2256
(dp2257
I1
tp2258
tp2259
Rp2260
ag1
(g2
g3
(S'Russia said the system is a clear threat to Russian security .'
p2261
(lp2262
(iamr_util.Actions
AMRAction
p2263
(dp2264
g8
I3
sg9
Nsg10
Nsg11
Nsg12
Nsg13
g14
sba(iamr_util.Actions
AMRAction
p2265
(dp2266
g8
I0
sg9
Nsg10
Nsg11
S'say-01'
p2267
sg12
g179
sg13
g31
sba(iamr_util.Actions
AMRAction
p2268
(dp2269
g8
I3
sg9
Nsg10
Nsg11
Nsg12
Nsg13
g14
sba(iamr_util.Actions
AMRAction
p2270
(dp2271
g8
I0
sg9
Nsg10
Nsg11
S'system'
p2272
sg12
S's2'
p2273
sg13
g31
sba(iamr_util.Actions
AMRAction
p2274
(dp2275
g8
I3
sg9
Nsg10
Nsg11
Nsg12
Nsg13
g14
sba(iamr_util.Actions
AMRAction
p2276
(dp2277
g8
I3
sg9
Nsg10
Nsg11
Nsg12
Nsg13
g14
sba(iamr_util.Actions
AMRAction
p2278
(dp2279
g8
I0
sg9
Nsg10
Nsg11
S'clear-06'
p2280
sg12
g249
sg13
g31
sba(iamr_util.Actions
AMRAction
p2281
(dp2282
g8
I0
sg9
Nsg10
Nsg11
S'threaten-01'
p2283
sg12
g93
sg13
g31
sba(iamr_util.Actions
AMRAction
p2284
(dp2285
g8
I1
sg9
Nsg10
Nsg11
S'ARG1-of'
p2286
sg12
Nsg13
g83
sba(iamr_util.Actions
AMRAction
p2287
(dp2288
g8
I1
sg9
Nsg10
Nsg11
S'ARG0'
p2289
sg12
Nsg13
g83
sba(iamr_util.Actions
AMRAction
p2290
(dp2291
g8
I3
sg9
Nsg10
Nsg11
Nsg12
Nsg13
g14
sba(iamr_util.Actions
AMRAction
p2292
(dp2293
g8
I0
sg9
Nsg10
Nsg11
S'country'
p2294
sg12
S'COREF_c3_0'
p2295
sg13
g31
sba(iamr_util.Actions
AMRAction
p2296
(dp2297
g8
I0
sg9
Nsg10
Nsg11
S'security'
p2298
sg12
S's3'
p2299
sg13
g31
sba(iamr_util.Actions
AMRAction
p2300
(dp2301
g8
I1
sg9
Nsg10
Nsg11
S'mod'
p2302
sg12
Nsg13
g83
sba(iamr_util.Actions
AMRAction
p2303
(dp2304
g8
I2
sg9
Nsg10
Nsg11
S'ARG2'
p2305
sg12
Nsg13
g107
sba(iamr_util.Actions
AMRAction
p2306
(dp2307
g8
I2
sg9
Nsg10
Nsg11
S'ARG1'
p2308
sg12
Nsg13
g107
sba(iamr_util.Actions
AMRAction
p2309
(dp2310
g8
I3
sg9
Nsg10
Nsg11
Nsg12
Nsg13
g14
sbaS'(s / say-01~e.1\n      :ARG0 (c3 / country)\n      :ARG1 (t / threaten-01~e.7\n            :ARG0 (s2 / system~e.3)\n            :ARG2~e.8 (s3 / security~e.10\n                  :mod (COREF_c3_0 / country~e.9))\n            :ARG1-of (c / clear-06~e.6)))'
p2311
(dp2312
(lp2313
(lp2314
(dp2315
I1
tp2316
tp2317
Rp2318
ag1
(g2
g3
(S"Interpol posted the red notice on Interpol 's website ."
p2319
(lp2320
(iamr_util.Actions
AMRAction
p2321
(dp2322
g8
I3
sg9
Nsg10
Nsg11
Nsg12
Nsg13
g14
sba(iamr_util.Actions
AMRAction
p2323
(dp2324
g8
I0
sg9
Nsg10
Nsg11
S'post-01'
p2325
sg12
g183
sg13
g31
sba(iamr_util.Actions
AMRAction
p2326
(dp2327
g8
I3
sg9
Nsg10
Nsg11
Nsg12
Nsg13
g14
sba(iamr_util.Actions
AMRAction
p2328
(dp2329
g8
I0
sg9
Nsg10
Nsg11
S'red'
p2330
sg12
g30
sg13
g31
sba(iamr_util.Actions
AMRAction
p2331
(dp2332
g8
I0
sg9
Nsg10
Nsg11
S'notice-03'
p2333
sg12
S'n2'
p2334
sg13
g31
sba(iamr_util.Actions
AMRAction
p2335
(dp2336
g8
I1
sg9
Nsg10
Nsg11
S'mod'
p2337
sg12
Nsg13
g83
sba(iamr_util.Actions
AMRAction
p2338
(dp2339
g8
I2
sg9
Nsg10
Nsg11
S'ARG1'
p2340
sg12
Nsg13
g107
sba(iamr_util.Actions
AMRAction
p2341
(dp2342
g8
I3
sg9
Nsg10
Nsg11
Nsg12
Nsg13
g14
sba(iamr_util.Actions
AMRAction
p2343
(dp2344
g8
I0
sg9
Nsg10
Nsg11
S'organization'
p2345
sg12
S'COREF_o3_0'
p2346
sg13
g31
sba(iamr_util.Actions
AMRAction
p2347
(dp2348
g8
I3
sg9
Nsg10
Nsg11
Nsg12
Nsg13
g14
sba(iamr_util.Actions
AMRAction
p2349
(dp2350
g8
I0
sg9
Nsg10
Nsg11
S'website'
p2351
sg12
g1444
sg13
g31
sba(iamr_util.Actions
AMRAction
p2352
(dp2353
g8
I1
sg9
Nsg10
Nsg11
S'poss'
p2354
sg12
Nsg13
g83
sba(iamr_util.Actions
AMRAction
p2355
(dp2356
g8
I2
sg9
Nsg10
Nsg11
S'ARG2'
p2357
sg12
Nsg13
g107
sba(iamr_util.Actions
AMRAction
p2358
(dp2359
g8
I3
sg9
Nsg10
Nsg11
Nsg12
Nsg13
g14
sbaS'(p / post-01~e.1\n      :ARG0 (o3 / organization)\n      :ARG1 (n2 / notice-03~e.4\n            :mod (r / red~e.3))\n      :ARG2~e.5 (w / website~e.8\n            :poss~e.7 (COREF_o3_0 / organization~e.6)))'
p2360
(dp2361
(lp2362
(lp2363
(dp2364
I1
tp2365
tp2366
Rp2367
ag1
(g2
g3
(S'The order of Interpol binds on all countries are associated with Interpol .'
p2368
(lp2369
(iamr_util.Actions
AMRAction
p2370
(dp2371
g8
I3
sg9
Nsg10
Nsg11
Nsg12
Nsg13
g14
sba(iamr_util.Actions
AMRAction
p2372
(dp2373
g8
I0
sg9
Nsg10
Nsg11
S'order'
p2374
sg12
g504
sg13
g31
sba(iamr_util.Actions
AMRAction
p2375
(dp2376
g8
I3
sg9
Nsg10
Nsg11
Nsg12
Nsg13
g14
sba(iamr_util.Actions
AMRAction
p2377
(dp2378
g8
I0
sg9
Nsg10
Nsg11
S'organization'
p2379
sg12
S'COREF_o3_0'
p2380
sg13
g31
sba(iamr_util.Actions
AMRAction
p2381
(dp2382
g8
I2
sg9
Nsg10
Nsg11
S'poss'
p2383
sg12
Nsg13
g107
sba(iamr_util.Actions
AMRAction
p2384
(dp2385
g8
I0
sg9
Nsg10
Nsg11
S'bind-01'
p2386
sg12
S'b2'
p2387
sg13
g31
sba(iamr_util.Actions
AMRAction
p2388
(dp2389
g8
I1
sg9
Nsg10
Nsg11
S'ARG0'
p2390
sg12
Nsg13
g83
sba(iamr_util.Actions
AMRAction
p2391
(dp2392
g8
I3
sg9
Nsg10
Nsg11
Nsg12
Nsg13
g14
sba(iamr_util.Actions
AMRAction
p2393
(dp2394
g8
I0
sg9
Nsg10
Nsg11
S'all'
p2395
sg12
S'a3'
p2396
sg13
g31
sba(iamr_util.Actions
AMRAction
p2397
(dp2398
g8
I0
sg9
Nsg10
Nsg11
S'country'
p2399
sg12
S'c2'
p2400
sg13
g31
sba(iamr_util.Actions
AMRAction
p2401
(dp2402
g8
I1
sg9
Nsg10
Nsg11
S'mod'
p2403
sg12
Nsg13
g83
sba(iamr_util.Actions
AMRAction
p2404
(dp2405
g8
I1
sg9
Nsg10
Nsg11
S'ARG1-of'
p2406
sg12
Nsg13
g83
sba(iamr_util.Actions
AMRAction
p2407
(dp2408
g8
I3
sg9
Nsg10
Nsg11
Nsg12
Nsg13
g14
sba(iamr_util.Actions
AMRAction
p2409
(dp2410
g8
I0
sg9
Nsg10
Nsg11
S'associate-01'
p2411
sg12
g67
sg13
g31
sba(iamr_util.Actions
AMRAction
p2412
(dp2413
g8
I1
sg9
Nsg10
Nsg11
S'ARG1'
p2414
sg12
Nsg13
g83
sba(iamr_util.Actions
AMRAction
p2415
(dp2416
g8
I3
sg9
Nsg10
Nsg11
Nsg12
Nsg13
g14
sba(iamr_util.Actions
AMRAction
p2417
(dp2418
g8
I3
sg9
Nsg10
Nsg11
Nsg12
Nsg13
g14
sba(iamr_util.Actions
AMRAction
p2419
(dp2420
g8
I3
sg9
Nsg10
Nsg11
Nsg12
Nsg13
g14
sbaS'(a / associate-01~e.9\n      :ARG1 (c2 / country~e.7\n            :ARG1-of (b2 / bind-01~e.4\n                  :ARG0 (o / order~e.1\n                        :poss~e.2 (COREF_o3_0 / organization~e.3)))\n            :mod (a3 / all~e.6))\n      :ARG2~e.10 (o3 / organization))'
p2421
(dp2422
(lp2423
(lp2424
(dp2425
I1
tp2426
tp2427
Rp2428
ag1
(g2
g3
(S'China stated on date-entity that Chinese websites have been the subject of cyber attacks .'
p2429
(lp2430
(iamr_util.Actions
AMRAction
p2431
(dp2432
g8
I3
sg9
Nsg10
Nsg11
Nsg12
Nsg13
g14
sba(iamr_util.Actions
AMRAction
p2433
(dp2434
g8
I0
sg9
Nsg10
Nsg11
S'state-01'
p2435
sg12
g179
sg13
g31
sba(iamr_util.Actions
AMRAction
p2436
(dp2437
g8
I3
sg9
Nsg10
Nsg11
Nsg12
Nsg13
g14
sba(iamr_util.Actions
AMRAction
p2438
(dp2439
g8
I0
sg9
Nsg10
Nsg11
S'date-entity'
p2440
sg12
g266
sg13
g31
sba(iamr_util.Actions
AMRAction
p2441
(dp2442
g8
I2
sg9
Nsg10
Nsg11
S'time'
p2443
sg12
Nsg13
g107
sba(iamr_util.Actions
AMRAction
p2444
(dp2445
g8
I3
sg9
Nsg10
Nsg11
Nsg12
Nsg13
g14
sba(iamr_util.Actions
AMRAction
p2446
(dp2447
g8
I0
sg9
Nsg10
Nsg11
S'country'
p2448
sg12
S'COREF_c_0'
p2449
sg13
g31
sba(iamr_util.Actions
AMRAction
p2450
(dp2451
g8
I0
sg9
Nsg10
Nsg11
S'website'
p2452
sg12
g1444
sg13
g31
sba(iamr_util.Actions
AMRAction
p2453
(dp2454
g8
I1
sg9
Nsg10
Nsg11
S'mod'
p2455
sg12
Nsg13
g83
sba(iamr_util.Actions
AMRAction
p2456
(dp2457
g8
I3
sg9
Nsg10
Nsg11
Nsg12
Nsg13
g14
sba(iamr_util.Actions
AMRAction
p2458
(dp2459
g8
I3
sg9
Nsg10
Nsg11
Nsg12
Nsg13
g14
sba(iamr_util.Actions
AMRAction
p2460
(dp2461
g8
I3
sg9
Nsg10
Nsg11
Nsg12
Nsg13
g14
sba(iamr_util.Actions
AMRAction
p2462
(dp2463
g8
I0
sg9
Nsg10
Nsg11
S'subject-01'
p2464
sg12
S's2'
p2465
sg13
g31
sba(iamr_util.Actions
AMRAction
p2466
(dp2467
g8
I1
sg9
Nsg10
Nsg11
S'ARG1'
p2468
sg12
Nsg13
g83
sba(iamr_util.Actions
AMRAction
p2469
(dp2470
g8
I3
sg9
Nsg10
Nsg11
Nsg12
Nsg13
g14
sba(iamr_util.Actions
AMRAction
p2471
(dp2472
g8
I0
sg9
Nsg10
Nsg11
S'cyber'
p2473
sg12
S'c2'
p2474
sg13
g31
sba(iamr_util.Actions
AMRAction
p2475
(dp2476
g8
I0
sg9
Nsg10
Nsg11
S'attack-01'
p2477
sg12
g67
sg13
g31
sba(iamr_util.Actions
AMRAction
p2478
(dp2479
g8
I1
sg9
Nsg10
Nsg11
S'mod'
p2480
sg12
Nsg13
g83
sba(iamr_util.Actions
AMRAction
p2481
(dp2482
g8
I2
sg9
Nsg10
Nsg11
S'ARG2'
p2483
sg12
Nsg13
g107
sba(iamr_util.Actions
AMRAction
p2484
(dp2485
g8
I2
sg9
Nsg10
Nsg11
S'ARG1'
p2486
sg12
Nsg13
g107
sba(iamr_util.Actions
AMRAction
p2487
(dp2488
g8
I3
sg9
Nsg10
Nsg11
Nsg12
Nsg13
g14
sbaS'(s / state-01~e.1\n      :ARG0 (c / country)\n      :ARG1~e.7 (s2 / subject-01~e.13\n            :ARG1 (w / website~e.9\n                  :mod (COREF_c_0 / country~e.8))\n            :ARG2~e.14 (a / attack-01~e.16\n                  :mod (c2 / cyber~e.15)))\n      :time~e.2 (d / date-entity :month~e.3 9~e.3 :day 11~e.4 :year 2007~e.6))'
p2489
(dp2490
(lp2491
(lp2492
(dp2493
g266
(iamr_util.Node
Node
p2494
(dp2495
g297
Nsg298
(lp2496
((iamr_util.Node
Node
p2497
(dp2498
g297
g1
(g302
g138
S'9'
p2499
tp2500
Rp2501
sg298
(lp2502
sg11
NsbS'month'
p2503
tp2504
a((iamr_util.Node
Node
p2505
(dp2506
g297
g1
(g302
g138
S'11'
p2507
tp2508
Rp2509
sg298
(lp2510
sg11
NsbS'day'
p2511
tp2512
a((iamr_util.Node
Node
p2513
(dp2514
g297
g1
(g302
g138
S'2007'
p2515
tp2516
Rp2517
sg298
(lp2518
sg11
NsbS'year'
p2519
tp2520
asg11
g325
sbsI1
tp2521
tp2522
Rp2523
ag1
(g2
g3
(S'China stated on date-entity that China is a frequent victim of cyber attacks .'
p2524
(lp2525
(iamr_util.Actions
AMRAction
p2526
(dp2527
g8
I3
sg9
Nsg10
Nsg11
Nsg12
Nsg13
g14
sba(iamr_util.Actions
AMRAction
p2528
(dp2529
g8
I0
sg9
Nsg10
Nsg11
S'state-01'
p2530
sg12
g179
sg13
g31
sba(iamr_util.Actions
AMRAction
p2531
(dp2532
g8
I3
sg9
Nsg10
Nsg11
Nsg12
Nsg13
g14
sba(iamr_util.Actions
AMRAction
p2533
(dp2534
g8
I0
sg9
Nsg10
Nsg11
S'date-entity'
p2535
sg12
g266
sg13
g31
sba(iamr_util.Actions
AMRAction
p2536
(dp2537
g8
I2
sg9
Nsg10
Nsg11
S'time'
p2538
sg12
Nsg13
g107
sba(iamr_util.Actions
AMRAction
p2539
(dp2540
g8
I3
sg9
Nsg10
Nsg11
Nsg12
Nsg13
g14
sba(iamr_util.Actions
AMRAction
p2541
(dp2542
g8
I0
sg9
Nsg10
Nsg11
S'country'
p2543
sg12
S'COREF_c_0'
p2544
sg13
g31
sba(iamr_util.Actions
AMRAction
p2545
(dp2546
g8
I3
sg9
Nsg10
Nsg11
Nsg12
Nsg13
g14
sba(iamr_util.Actions
AMRAction
p2547
(dp2548
g8
I3
sg9
Nsg10
Nsg11
Nsg12
Nsg13
g14
sba(iamr_util.Actions
AMRAction
p2549
(dp2550
g8
I0
sg9
Nsg10
Nsg11
S'frequent-02'
p2551
sg12
g1808
sg13
g31
sba(iamr_util.Actions
AMRAction
p2552
(dp2553
g8
I0
sg9
Nsg10
Nsg11
S'victim'
p2554
sg12
g853
sg13
g31
sba(iamr_util.Actions
AMRAction
p2555
(dp2556
g8
I1
sg9
Nsg10
Nsg11
S'ARG1-of'
p2557
sg12
Nsg13
g83
sba(iamr_util.Actions
AMRAction
p2558
(dp2559
g8
I1
sg9
Nsg10
Nsg11
S'domain'
p2560
sg12
Nsg13
g83
sba(iamr_util.Actions
AMRAction
p2561
(dp2562
g8
I3
sg9
Nsg10
Nsg11
Nsg12
Nsg13
g14
sba(iamr_util.Actions
AMRAction
p2563
(dp2564
g8
I0
sg9
Nsg10
Nsg11
S'cyber'
p2565
sg12
S'c2'
p2566
sg13
g31
sba(iamr_util.Actions
AMRAction
p2567
(dp2568
g8
I0
sg9
Nsg10
Nsg11
S'attack-01'
p2569
sg12
g67
sg13
g31
sba(iamr_util.Actions
AMRAction
p2570
(dp2571
g8
I1
sg9
Nsg10
Nsg11
S'mod'
p2572
sg12
Nsg13
g83
sba(iamr_util.Actions
AMRAction
p2573
(dp2574
g8
I2
sg9
Nsg10
Nsg11
g2557
sg12
Nsg13
g107
sba(iamr_util.Actions
AMRAction
p2575
(dp2576
g8
I2
sg9
Nsg10
Nsg11
S'ARG1'
p2577
sg12
Nsg13
g107
sba(iamr_util.Actions
AMRAction
p2578
(dp2579
g8
I3
sg9
Nsg10
Nsg11
Nsg12
Nsg13
g14
sbaS'(s / state-01~e.1\n      :ARG0 (c / country)\n      :ARG1~e.7 (v / victim~e.12\n            :domain~e.9 (COREF_c_0 / country~e.8)\n            :ARG1-of~e.13 (a / attack-01~e.15\n                  :mod (c2 / cyber~e.14))\n            :ARG1-of (f / frequent-02~e.11))\n      :time~e.2 (d / date-entity :month~e.3 9~e.3 :day 11~e.4 :year 2007~e.6))'
p2580
(dp2581
(lp2582
(lp2583
(dp2584
g266
(iamr_util.Node
Node
p2585
(dp2586
g297
Nsg298
(lp2587
((iamr_util.Node
Node
p2588
(dp2589
g297
g1
(g302
g138
g2499
tp2590
Rp2591
sg298
(lp2592
sg11
NsbS'month'
p2593
tp2594
a((iamr_util.Node
Node
p2595
(dp2596
g297
g1
(g302
g138
S'11'
p2597
tp2598
Rp2599
sg298
(lp2600
sg11
NsbS'day'
p2601
tp2602
a((iamr_util.Node
Node
p2603
(dp2604
g297
g1
(g302
g138
S'2007'
p2605
tp2606
Rp2607
sg298
(lp2608
sg11
NsbS'year'
p2609
tp2610
asg11
g325
sbsI1
tp2611
tp2612
Rp2613
ag1
(g2
g3
(S"Kazakhstan yielded tangible economic benefits by ending Kazakhstan 's nuclear program ."
p2614
(lp2615
(iamr_util.Actions
AMRAction
p2616
(dp2617
g8
I3
sg9
Nsg10
Nsg11
Nsg12
Nsg13
g14
sba(iamr_util.Actions
AMRAction
p2618
(dp2619
g8
I0
sg9
Nsg10
Nsg11
S'yield-01'
p2620
sg12
S'y'
p2621
sg13
g31
sba(iamr_util.Actions
AMRAction
p2622
(dp2623
g8
I0
sg9
Nsg10
Nsg11
S'tangible'
p2624
sg12
g93
sg13
g31
sba(iamr_util.Actions
AMRAction
p2625
(dp2626
g8
I0
sg9
Nsg10
Nsg11
S'economy'
p2627
sg12
g600
sg13
g31
sba(iamr_util.Actions
AMRAction
p2628
(dp2629
g8
I0
sg9
Nsg10
Nsg11
S'benefit'
p2630
sg12
g151
sg13
g31
sba(iamr_util.Actions
AMRAction
p2631
(dp2632
g8
I1
sg9
Nsg10
Nsg11
S'mod'
p2633
sg12
Nsg13
g83
sba(iamr_util.Actions
AMRAction
p2634
(dp2635
g8
I1
sg9
Nsg10
Nsg11
g2633
sg12
Nsg13
g83
sba(iamr_util.Actions
AMRAction
p2636
(dp2637
g8
I2
sg9
Nsg10
Nsg11
S'ARG1'
p2638
sg12
Nsg13
g107
sba(iamr_util.Actions
AMRAction
p2639
(dp2640
g8
I3
sg9
Nsg10
Nsg11
Nsg12
Nsg13
g14
sba(iamr_util.Actions
AMRAction
p2641
(dp2642
g8
I0
sg9
Nsg10
Nsg11
S'end-01'
p2643
sg12
S'e2'
p2644
sg13
g31
sba(iamr_util.Actions
AMRAction
p2645
(dp2646
g8
I0
sg9
Nsg10
Nsg11
S'country'
p2647
sg12
S'COREF_c_0'
p2648
sg13
g31
sba(iamr_util.Actions
AMRAction
p2649
(dp2650
g8
I2
sg9
Nsg10
Nsg11
S'ARG0'
p2651
sg12
Nsg13
g107
sba(iamr_util.Actions
AMRAction
p2652
(dp2653
g8
I3
sg9
Nsg10
Nsg11
Nsg12
Nsg13
g14
sba(iamr_util.Actions
AMRAction
p2654
(dp2655
g8
I0
sg9
Nsg10
Nsg11
S'nucleus'
p2656
sg12
S'n2'
p2657
sg13
g31
sba(iamr_util.Actions
AMRAction
p2658
(dp2659
g8
I0
sg9
Nsg10
Nsg11
S'program'
p2660
sg12
g183
sg13
g31
sba(iamr_util.Actions
AMRAction
p2661
(dp2662
g8
I1
sg9
Nsg10
Nsg11
S'mod'
p2663
sg12
Nsg13
g83
sba(iamr_util.Actions
AMRAction
p2664
(dp2665
g8
I2
sg9
Nsg10
Nsg11
S'ARG1'
p2666
sg12
Nsg13
g107
sba(iamr_util.Actions
AMRAction
p2667
(dp2668
g8
I2
sg9
Nsg10
Nsg11
S'manner'
p2669
sg12
Nsg13
g107
sba(iamr_util.Actions
AMRAction
p2670
(dp2671
g8
I3
sg9
Nsg10
Nsg11
Nsg12
Nsg13
g14
sbaS'(y / yield-01~e.1\n      :ARG0 (c / country)\n      :ARG1 (b / benefit~e.4\n            :mod (e / economy~e.3)\n            :mod (t / tangible~e.2))\n      :manner~e.5 (e2 / end-01~e.6\n            :ARG0 (COREF_c_0 / country~e.7)\n            :ARG1 (p / program~e.10\n                  :mod (n2 / nucleus~e.9))))'
p2672
(dp2673
(lp2674
(lp2675
(dp2676
I1
tp2677
tp2678
Rp2679
ag1
(g2
g3
(S"Kazakhstan renounced Kazakhstan 's nuclear missile arsenal ."
p2680
(lp2681
(iamr_util.Actions
AMRAction
p2682
(dp2683
g8
I3
sg9
Nsg10
Nsg11
Nsg12
Nsg13
g14
sba(iamr_util.Actions
AMRAction
p2684
(dp2685
g8
I0
sg9
Nsg10
Nsg11
S'renounce-01'
p2686
sg12
g30
sg13
g31
sba(iamr_util.Actions
AMRAction
p2687
(dp2688
g8
I0
sg9
Nsg10
Nsg11
S'country'
p2689
sg12
S'COREF_c_0'
p2690
sg13
g31
sba(iamr_util.Actions
AMRAction
p2691
(dp2692
g8
I3
sg9
Nsg10
Nsg11
Nsg12
Nsg13
g14
sba(iamr_util.Actions
AMRAction
p2693
(dp2694
g8
I0
sg9
Nsg10
Nsg11
S'nucleus'
p2695
sg12
S'n2'
p2696
sg13
g31
sba(iamr_util.Actions
AMRAction
p2697
(dp2698
g8
I0
sg9
Nsg10
Nsg11
S'missile'
p2699
sg12
g187
sg13
g31
sba(iamr_util.Actions
AMRAction
p2700
(dp2701
g8
I1
sg9
Nsg10
Nsg11
S'mod'
p2702
sg12
Nsg13
g83
sba(iamr_util.Actions
AMRAction
p2703
(dp2704
g8
I0
sg9
Nsg10
Nsg11
S'arsenal'
p2705
sg12
g67
sg13
g31
sba(iamr_util.Actions
AMRAction
p2706
(dp2707
g8
I1
sg9
Nsg10
Nsg11
S'consist-of'
p2708
sg12
Nsg13
g83
sba(iamr_util.Actions
AMRAction
p2709
(dp2710
g8
I1
sg9
Nsg10
Nsg11
S'poss'
p2711
sg12
Nsg13
g83
sba(iamr_util.Actions
AMRAction
p2712
(dp2713
g8
I2
sg9
Nsg10
Nsg11
S'ARG1'
p2714
sg12
Nsg13
g107
sba(iamr_util.Actions
AMRAction
p2715
(dp2716
g8
I3
sg9
Nsg10
Nsg11
Nsg12
Nsg13
g14
sbaS'(r / renounce-01~e.1\n      :ARG0 (c / country)\n      :ARG1 (a / arsenal~e.6\n            :consist-of (m / missile~e.5\n                  :mod (n2 / nucleus~e.4))\n            :poss~e.3 (COREF_c_0 / country~e.2)))'
p2717
(dp2718
(lp2719
(lp2720
(dp2721
I1
tp2722
tp2723
Rp2724
ag1
(g2
g3
(S'Daud stated that a total of mass-quantity ( 8866 pounds ) of heroin and mass-quantity of chemicals used to make the heroin were seized and the lab has been destroyed .'
p2725
(lp2726
(iamr_util.Actions
AMRAction
p2727
(dp2728
g8
I3
sg9
Nsg10
Nsg11
Nsg12
Nsg13
g14
sba(iamr_util.Actions
AMRAction
p2729
(dp2730
g8
I0
sg9
Nsg10
Nsg11
S'state-01'
p2731
sg12
g179
sg13
g31
sba(iamr_util.Actions
AMRAction
p2732
(dp2733
g8
I3
sg9
Nsg10
Nsg11
Nsg12
Nsg13
g14
sba(iamr_util.Actions
AMRAction
p2734
(dp2735
g8
I3
sg9
Nsg10
Nsg11
Nsg12
Nsg13
g14
sba(iamr_util.Actions
AMRAction
p2736
(dp2737
g8
I0
sg9
Nsg10
Nsg11
S'total-01'
p2738
sg12
g93
sg13
g31
sba(iamr_util.Actions
AMRAction
p2739
(dp2740
g8
I3
sg9
Nsg10
Nsg11
Nsg12
Nsg13
g14
sba(iamr_util.Actions
AMRAction
p2741
(dp2742
g8
I0
sg9
Nsg10
Nsg11
S'mass-quantity'
p2743
sg12
S'm2'
p2744
sg13
g31
sba(iamr_util.Actions
AMRAction
p2745
(dp2746
g8
I3
sg9
Nsg10
Nsg11
Nsg12
Nsg13
g14
sba(iamr_util.Actions
AMRAction
p2747
(dp2748
g8
I3
sg9
Nsg10
Nsg11
Nsg12
Nsg13
g14
sba(iamr_util.Actions
AMRAction
p2749
(dp2750
g8
I3
sg9
Nsg10
Nsg11
Nsg12
Nsg13
g14
sba(iamr_util.Actions
AMRAction
p2751
(dp2752
g8
I3
sg9
Nsg10
Nsg11
Nsg12
Nsg13
g14
sba(iamr_util.Actions
AMRAction
p2753
(dp2754
g8
I3
sg9
Nsg10
Nsg11
Nsg12
Nsg13
g14
sba(iamr_util.Actions
AMRAction
p2755
(dp2756
g8
I0
sg9
Nsg10
Nsg11
S'heroin'
p2757
sg12
g775
sg13
g31
sba(iamr_util.Actions
AMRAction
p2758
(dp2759
g8
I1
sg9
Nsg10
Nsg11
S'quant'
p2760
sg12
Nsg13
g83
sba(iamr_util.Actions
AMRAction
p2761
(dp2762
g8
I0
sg9
Nsg10
Nsg11
S'and'
p2763
sg12
S'a2'
p2764
sg13
g31
sba(iamr_util.Actions
AMRAction
p2765
(dp2766
g8
I1
sg9
Nsg10
Nsg11
S'op1'
p2767
sg12
Nsg13
g83
sba(iamr_util.Actions
AMRAction
p2768
(dp2769
g8
I1
sg9
Nsg10
Nsg11
S'ARG2-of'
p2770
sg12
Nsg13
g83
sba(iamr_util.Actions
AMRAction
p2771
(dp2772
g8
I0
sg9
Nsg10
Nsg11
S'mass-quantity'
p2773
sg12
S'm3'
p2774
sg13
g31
sba(iamr_util.Actions
AMRAction
p2775
(dp2776
g8
I3
sg9
Nsg10
Nsg11
Nsg12
Nsg13
g14
sba(iamr_util.Actions
AMRAction
p2777
(dp2778
g8
I0
sg9
Nsg10
Nsg11
S'chemical'
p2779
sg12
g249
sg13
g31
sba(iamr_util.Actions
AMRAction
p2780
(dp2781
g8
I1
sg9
Nsg10
Nsg11
S'quant'
p2782
sg12
Nsg13
g83
sba(iamr_util.Actions
AMRAction
p2783
(dp2784
g8
I0
sg9
Nsg10
Nsg11
S'use-01'
p2785
sg12
g948
sg13
g31
sba(iamr_util.Actions
AMRAction
p2786
(dp2787
g8
I3
sg9
Nsg10
Nsg11
Nsg12
Nsg13
g14
sba(iamr_util.Actions
AMRAction
p2788
(dp2789
g8
I0
sg9
Nsg10
Nsg11
S'make-01'
p2790
sg12
g187
sg13
g31
sba(iamr_util.Actions
AMRAction
p2791
(dp2792
g8
I3
sg9
Nsg10
Nsg11
Nsg12
Nsg13
g14
sba(iamr_util.Actions
AMRAction
p2793
(dp2794
g8
I0
sg9
Nsg10
Nsg11
S'heroin'
p2795
sg12
S'COREF_h_0'
p2796
sg13
g31
sba(iamr_util.Actions
AMRAction
p2797
(dp2798
g8
I2
sg9
Nsg10
Nsg11
S'ARG1'
p2799
sg12
Nsg13
g107
sba(iamr_util.Actions
AMRAction
p2800
(dp2801
g8
I2
sg9
Nsg10
Nsg11
S'ARG2'
p2802
sg12
Nsg13
g107
sba(iamr_util.Actions
AMRAction
p2803
(dp2804
g8
I2
sg9
Nsg10
Nsg11
S'ARG1-of'
p2805
sg12
Nsg13
g107
sba(iamr_util.Actions
AMRAction
p2806
(dp2807
g8
I2
sg9
Nsg10
Nsg11
S'op2'
p2808
sg12
Nsg13
g107
sba(iamr_util.Actions
AMRAction
p2809
(dp2810
g8
I3
sg9
Nsg10
Nsg11
Nsg12
Nsg13
g14
sba(iamr_util.Actions
AMRAction
p2811
(dp2812
g8
I0
sg9
Nsg10
Nsg11
S'seize-01'
p2813
sg12
S's2'
p2814
sg13
g31
sba(iamr_util.Actions
AMRAction
p2815
(dp2816
g8
I1
sg9
Nsg10
Nsg11
S'ARG1'
p2817
sg12
Nsg13
g83
sba(iamr_util.Actions
AMRAction
p2818
(dp2819
g8
I0
sg9
Nsg10
Nsg11
S'and'
p2820
sg12
g67
sg13
g31
sba(iamr_util.Actions
AMRAction
p2821
(dp2822
g8
I1
sg9
Nsg10
Nsg11
S'op1'
p2823
sg12
Nsg13
g83
sba(iamr_util.Actions
AMRAction
p2824
(dp2825
g8
I3
sg9
Nsg10
Nsg11
Nsg12
Nsg13
g14
sba(iamr_util.Actions
AMRAction
p2826
(dp2827
g8
I0
sg9
Nsg10
Nsg11
S'lab'
p2828
sg12
g230
sg13
g31
sba(iamr_util.Actions
AMRAction
p2829
(dp2830
g8
I3
sg9
Nsg10
Nsg11
Nsg12
Nsg13
g14
sba(iamr_util.Actions
AMRAction
p2831
(dp2832
g8
I3
sg9
Nsg10
Nsg11
Nsg12
Nsg13
g14
sba(iamr_util.Actions
AMRAction
p2833
(dp2834
g8
I0
sg9
Nsg10
Nsg11
S'destroy-01'
p2835
sg12
g266
sg13
g31
sba(iamr_util.Actions
AMRAction
p2836
(dp2837
g8
I1
sg9
Nsg10
Nsg11
S'ARG1'
p2838
sg12
Nsg13
g83
sba(iamr_util.Actions
AMRAction
p2839
(dp2840
g8
I2
sg9
Nsg10
Nsg11
S'op2'
p2841
sg12
Nsg13
g107
sba(iamr_util.Actions
AMRAction
p2842
(dp2843
g8
I2
sg9
Nsg10
Nsg11
S'ARG1'
p2844
sg12
Nsg13
g107
sba(iamr_util.Actions
AMRAction
p2845
(dp2846
g8
I3
sg9
Nsg10
Nsg11
Nsg12
Nsg13
g14
sbaS'(s / state-01~e.1\n      :ARG0 (p2 / person)\n      :ARG1~e.2 (a / and~e.26\n            :op1 (s2 / seize-01~e.25\n                  :ARG1 (a2 / and~e.14\n                        :op1 (h / heroin~e.13\n                              :quant (m2 / mass-quantity :quant 4030~e.6\n                                    :unit (k2 / kilogram~e.7)))\n                        :op2 (c / chemical~e.18\n                              :quant~e.17 (m3 / mass-quantity :quant 1~e.15\n                                    :unit (t3 / ton~e.16))\n                              :ARG1-of (u / use-01~e.19\n                                    :ARG2 (m / make-01~e.21\n                                          :ARG1 (COREF_h_0 / heroin~e.23))))\n                        :ARG2-of (t / total-01~e.4)))\n            :op2 (d / destroy-01~e.31\n                  :ARG1 (l / lab~e.28))))'
p2847
(dp2848
(lp2849
(lp2850
(dp2851
I1
tp2852
tp2853
Rp2854
ag1
(g2
g3
(S'Sisi was also known for her series of reputed lovers .'
p2855
(lp2856
(iamr_util.Actions
AMRAction
p2857
(dp2858
g8
I3
sg9
Nsg10
Nsg11
Nsg12
Nsg13
g14
sba(iamr_util.Actions
AMRAction
p2859
(dp2860
g8
I3
sg9
Nsg10
Nsg11
Nsg12
Nsg13
g14
sba(iamr_util.Actions
AMRAction
p2861
(dp2862
g8
I0
sg9
Nsg10
Nsg11
S'also'
p2863
sg12
g67
sg13
g31
sba(iamr_util.Actions
AMRAction
p2864
(dp2865
g8
I0
sg9
Nsg10
Nsg11
S'know-02'
p2866
sg12
S'k'
p2867
sg13
g31
sba(iamr_util.Actions
AMRAction
p2868
(dp2869
g8
I1
sg9
Nsg10
Nsg11
S'mod'
p2870
sg12
Nsg13
g83
sba(iamr_util.Actions
AMRAction
p2871
(dp2872
g8
I3
sg9
Nsg10
Nsg11
Nsg12
Nsg13
g14
sba(iamr_util.Actions
AMRAction
p2873
(dp2874
g8
I0
sg9
Nsg10
Nsg11
S'person'
p2875
sg12
S'COREF_p_0'
p2876
sg13
g31
sba(iamr_util.Actions
AMRAction
p2877
(dp2878
g8
I0
sg9
Nsg10
Nsg11
S'series'
p2879
sg12
g179
sg13
g31
sba(iamr_util.Actions
AMRAction
p2880
(dp2881
g8
I3
sg9
Nsg10
Nsg11
Nsg12
Nsg13
g14
sba(iamr_util.Actions
AMRAction
p2882
(dp2883
g8
I0
sg9
Nsg10
Nsg11
S'repute-01'
p2884
sg12
g30
sg13
g31
sba(iamr_util.Actions
AMRAction
p2885
(dp2886
g8
I0
sg9
Nsg10
Nsg11
S'lover'
p2887
sg12
S'l2'
p2888
sg13
g31
sba(iamr_util.Actions
AMRAction
p2889
(dp2890
g8
I1
sg9
Nsg10
Nsg11
S'ARG1-of'
p2891
sg12
Nsg13
g83
sba(iamr_util.Actions
AMRAction
p2892
(dp2893
g8
I1
sg9
Nsg10
Nsg11
S'quant'
p2894
sg12
Nsg13
g83
sba(iamr_util.Actions
AMRAction
p2895
(dp2896
g8
I1
sg9
Nsg10
Nsg11
S'poss'
p2897
sg12
Nsg13
g83
sba(iamr_util.Actions
AMRAction
p2898
(dp2899
g8
I2
sg9
Nsg10
Nsg11
S'ARG3'
p2900
sg12
Nsg13
g107
sba(iamr_util.Actions
AMRAction
p2901
(dp2902
g8
I3
sg9
Nsg10
Nsg11
Nsg12
Nsg13
g14
sbaS'(k / know-02~e.3\n      :ARG1 (p / person)\n      :ARG3~e.4 (l2 / lover~e.9\n            :ARG1-of (r / repute-01~e.8)\n            :quant~e.7 (s / series~e.6)\n            :poss~e.5 (COREF_p_0 / person~e.5))\n      :mod (a / also~e.2))'
p2903
(dp2904
(lp2905
(lp2906
(dp2907
I1
tp2908
tp2909
Rp2910
ag1
(g2
g3
(S'The Union of rightist forces is a liberal opposition group which has denounced an official campaign against the Union of rightist forces ahead of parliamentary elections on date-entity .'
p2911
(lp2912
(iamr_util.Actions
AMRAction
p2913
(dp2914
g8
I3
sg9
Nsg10
Nsg11
Nsg12
Nsg13
g14
sba(iamr_util.Actions
AMRAction
p2915
(dp2916
g8
I3
sg9
Nsg10
Nsg11
Nsg12
Nsg13
g14
sba(iamr_util.Actions
AMRAction
p2917
(dp2918
g8
I3
sg9
Nsg10
Nsg11
Nsg12
Nsg13
g14
sba(iamr_util.Actions
AMRAction
p2919
(dp2920
g8
I3
sg9
Nsg10
Nsg11
Nsg12
Nsg13
g14
sba(iamr_util.Actions
AMRAction
p2921
(dp2922
g8
I3
sg9
Nsg10
Nsg11
Nsg12
Nsg13
g14
sba(iamr_util.Actions
AMRAction
p2923
(dp2924
g8
I3
sg9
Nsg10
Nsg11
Nsg12
Nsg13
g14
sba(iamr_util.Actions
AMRAction
p2925
(dp2926
g8
I3
sg9
Nsg10
Nsg11
Nsg12
Nsg13
g14
sba(iamr_util.Actions
AMRAction
p2927
(dp2928
g8
I0
sg9
Nsg10
Nsg11
S'liberal-02'
p2929
sg12
g230
sg13
g31
sba(iamr_util.Actions
AMRAction
p2930
(dp2931
g8
I0
sg9
Nsg10
Nsg11
S'oppose-01'
p2932
sg12
g504
sg13
g31
sba(iamr_util.Actions
AMRAction
p2933
(dp2934
g8
I0
sg9
Nsg10
Nsg11
S'group'
p2935
sg12
S'g'
p2936
sg13
g31
sba(iamr_util.Actions
AMRAction
p2937
(dp2938
g8
I1
sg9
Nsg10
Nsg11
S'ARG0-of'
p2939
sg12
Nsg13
g83
sba(iamr_util.Actions
AMRAction
p2940
(dp2941
g8
I1
sg9
Nsg10
Nsg11
S'ARG1-of'
p2942
sg12
Nsg13
g83
sba(iamr_util.Actions
AMRAction
p2943
(dp2944
g8
I3
sg9
Nsg10
Nsg11
Nsg12
Nsg13
g14
sba(iamr_util.Actions
AMRAction
p2945
(dp2946
g8
I3
sg9
Nsg10
Nsg11
Nsg12
Nsg13
g14
sba(iamr_util.Actions
AMRAction
p2947
(dp2948
g8
I0
sg9
Nsg10
Nsg11
S'denounce-01'
p2949
sg12
g266
sg13
g31
sba(iamr_util.Actions
AMRAction
p2950
(dp2951
g8
I1
sg9
Nsg10
Nsg11
S'ARG0'
p2952
sg12
Nsg13
g83
sba(iamr_util.Actions
AMRAction
p2953
(dp2954
g8
I3
sg9
Nsg10
Nsg11
Nsg12
Nsg13
g14
sba(iamr_util.Actions
AMRAction
p2955
(dp2956
g8
I0
sg9
Nsg10
Nsg11
S'official'
p2957
sg12
S'o3'
p2958
sg13
g31
sba(iamr_util.Actions
AMRAction
p2959
(dp2960
g8
I0
sg9
Nsg10
Nsg11
S'campaign-01'
p2961
sg12
g249
sg13
g31
sba(iamr_util.Actions
AMRAction
p2962
(dp2963
g8
I1
sg9
Nsg10
Nsg11
S'mod'
p2964
sg12
Nsg13
g83
sba(iamr_util.Actions
AMRAction
p2965
(dp2966
g8
I0
sg9
Nsg10
Nsg11
S'oppose-01'
p2967
sg12
S'o2'
p2968
sg13
g31
sba(iamr_util.Actions
AMRAction
p2969
(dp2970
g8
I3
sg9
Nsg10
Nsg11
Nsg12
Nsg13
g14
sba(iamr_util.Actions
AMRAction
p2971
(dp2972
g8
I0
sg9
Nsg10
Nsg11
S'group'
p2973
sg12
S'COREF_g_0'
p2974
sg13
g31
sba(iamr_util.Actions
AMRAction
p2975
(dp2976
g8
I2
sg9
Nsg10
Nsg11
S'ARG1'
p2977
sg12
Nsg13
g107
sba(iamr_util.Actions
AMRAction
p2978
(dp2979
g8
I2
sg9
Nsg10
Nsg11
S'ARG0-of'
p2980
sg12
Nsg13
g107
sba(iamr_util.Actions
AMRAction
p2981
(dp2982
g8
I2
sg9
Nsg10
Nsg11
S'ARG1'
p2983
sg12
Nsg13
g107
sba(iamr_util.Actions
AMRAction
p2984
(dp2985
g8
I3
sg9
Nsg10
Nsg11
Nsg12
Nsg13
g14
sba(iamr_util.Actions
AMRAction
p2986
(dp2987
g8
I3
sg9
Nsg10
Nsg11
Nsg12
Nsg13
g14
sba(iamr_util.Actions
AMRAction
p2988
(dp2989
g8
I3
sg9
Nsg10
Nsg11
Nsg12
Nsg13
g14
sba(iamr_util.Actions
AMRAction
p2990
(dp2991
g8
I0
sg9
Nsg10
Nsg11
S'ahead'
p2992
sg12
g67
sg13
g31
sba(iamr_util.Actions
AMRAction
p2993
(dp2994
g8
I3
sg9
Nsg10
Nsg11
Nsg12
Nsg13
g14
sba(iamr_util.Actions
AMRAction
p2995
(dp2996
g8
I0
sg9
Nsg10
Nsg11
S'parliament'
p2997
sg12
g183
sg13
g31
sba(iamr_util.Actions
AMRAction
p2998
(dp2999
g8
I0
sg9
Nsg10
Nsg11
S'elect-01'
p3000
sg12
g600
sg13
g31
sba(iamr_util.Actions
AMRAction
p3001
(dp3002
g8
I1
sg9
Nsg10
Nsg11
S'mod'
p3003
sg12
Nsg13
g83
sba(iamr_util.Actions
AMRAction
p3004
(dp3005
g8
I3
sg9
Nsg10
Nsg11
Nsg12
Nsg13
g14
sba(iamr_util.Actions
AMRAction
p3006
(dp3007
g8
I0
sg9
Nsg10
Nsg11
S'date-entity'
p3008
sg12
S'd2'
p3009
sg13
g31
sba(iamr_util.Actions
AMRAction
p3010
(dp3011
g8
I2
sg9
Nsg10
Nsg11
S'time'
p3012
sg12
Nsg13
g107
sba(iamr_util.Actions
AMRAction
p3013
(dp3014
g8
I2
sg9
Nsg10
Nsg11
S'op1'
p3015
sg12
Nsg13
g107
sba(iamr_util.Actions
AMRAction
p3016
(dp3017
g8
I2
sg9
Nsg10
Nsg11
S'time'
p3018
sg12
Nsg13
g107
sba(iamr_util.Actions
AMRAction
p3019
(dp3020
g8
I3
sg9
Nsg10
Nsg11
Nsg12
Nsg13
g14
sbaS'(d / denounce-01~e.12\n      :ARG0 (g / group~e.9\n            :ARG1-of (l / liberal-02~e.7)\n            :ARG0-of (o / oppose-01~e.8))\n      :ARG1 (c / campaign-01~e.15\n            :mod (o3 / official~e.14)\n            :ARG0-of (o2 / oppose-01~e.16\n                  :ARG1 (COREF_g_0 / group~e.18,19,20,21)))\n      :time (a / ahead~e.22\n            :op1~e.23 (e / elect-01~e.25\n                  :mod (p / parliament~e.24)\n                  :time~e.26 (d2 / date-entity :year 2007~e.29 :month~e.28 12~e.28 :day 2~e.27))))'
p3021
(dp3022
(lp3023
(lp3024
(dp3025
g3009
(iamr_util.Node
Node
p3026
(dp3027
g297
Nsg298
(lp3028
((iamr_util.Node
Node
p3029
(dp3030
g297
g1
(g302
g138
S'2007'
p3031
tp3032
Rp3033
sg298
(lp3034
sg11
NsbS'year'
p3035
tp3036
a((iamr_util.Node
Node
p3037
(dp3038
g297
g1
(g302
g138
S'2'
p3039
tp3040
Rp3041
sg298
(lp3042
sg11
NsbS'day'
p3043
tp3044
a((iamr_util.Node
Node
p3045
(dp3046
g297
g1
(g302
g138
S'12'
p3047
tp3048
Rp3049
sg298
(lp3050
sg11
NsbS'month'
p3051
tp3052
asg11
g325
sbsI1
tp3053
tp3054
Rp3055
ag1
(g2
g3
(S"Jean @-@ Pierre maulny of France 's Institute for International and Strategic Relations ( IRIS ) stated that associated with the spread of civilian nuclear energy in a sensitive region is the risk of military nuclear programs unless control is absolute ."
p3056
(lp3057
(iamr_util.Actions
AMRAction
p3058
(dp3059
g8
I3
sg9
Nsg10
Nsg11
Nsg12
Nsg13
g14
sba(iamr_util.Actions
AMRAction
p3060
(dp3061
g8
I3
sg9
Nsg10
Nsg11
Nsg12
Nsg13
g14
sba(iamr_util.Actions
AMRAction
p3062
(dp3063
g8
I3
sg9
Nsg10
Nsg11
Nsg12
Nsg13
g14
sba(iamr_util.Actions
AMRAction
p3064
(dp3065
g8
I3
sg9
Nsg10
Nsg11
Nsg12
Nsg13
g14
sba(iamr_util.Actions
AMRAction
p3066
(dp3067
g8
I3
sg9
Nsg10
Nsg11
Nsg12
Nsg13
g14
sba(iamr_util.Actions
AMRAction
p3068
(dp3069
g8
I3
sg9
Nsg10
Nsg11
Nsg12
Nsg13
g14
sba(iamr_util.Actions
AMRAction
p3070
(dp3071
g8
I3
sg9
Nsg10
Nsg11
Nsg12
Nsg13
g14
sba(iamr_util.Actions
AMRAction
p3072
(dp3073
g8
I3
sg9
Nsg10
Nsg11
Nsg12
Nsg13
g14
sba(iamr_util.Actions
AMRAction
p3074
(dp3075
g8
I3
sg9
Nsg10
Nsg11
Nsg12
Nsg13
g14
sba(iamr_util.Actions
AMRAction
p3076
(dp3077
g8
I3
sg9
Nsg10
Nsg11
Nsg12
Nsg13
g14
sba(iamr_util.Actions
AMRAction
p3078
(dp3079
g8
I3
sg9
Nsg10
Nsg11
Nsg12
Nsg13
g14
sba(iamr_util.Actions
AMRAction
p3080
(dp3081
g8
I3
sg9
Nsg10
Nsg11
Nsg12
Nsg13
g14
sba(iamr_util.Actions
AMRAction
p3082
(dp3083
g8
I3
sg9
Nsg10
Nsg11
Nsg12
Nsg13
g14
sba(iamr_util.Actions
AMRAction
p3084
(dp3085
g8
I3
sg9
Nsg10
Nsg11
Nsg12
Nsg13
g14
sba(iamr_util.Actions
AMRAction
p3086
(dp3087
g8
I3
sg9
Nsg10
Nsg11
Nsg12
Nsg13
g14
sba(iamr_util.Actions
AMRAction
p3088
(dp3089
g8
I3
sg9
Nsg10
Nsg11
Nsg12
Nsg13
g14
sba(iamr_util.Actions
AMRAction
p3090
(dp3091
g8
I0
sg9
Nsg10
Nsg11
S'state-01'
p3092
sg12
g179
sg13
g31
sba(iamr_util.Actions
AMRAction
p3093
(dp3094
g8
I3
sg9
Nsg10
Nsg11
Nsg12
Nsg13
g14
sba(iamr_util.Actions
AMRAction
p3095
(dp3096
g8
I0
sg9
Nsg10
Nsg11
S'associate-01'
p3097
sg12
g67
sg13
g31
sba(iamr_util.Actions
AMRAction
p3098
(dp3099
g8
I3
sg9
Nsg10
Nsg11
Nsg12
Nsg13
g14
sba(iamr_util.Actions
AMRAction
p3100
(dp3101
g8
I3
sg9
Nsg10
Nsg11
Nsg12
Nsg13
g14
sba(iamr_util.Actions
AMRAction
p3102
(dp3103
g8
I0
sg9
Nsg10
Nsg11
S'spread-02'
p3104
sg12
S's2'
p3105
sg13
g31
sba(iamr_util.Actions
AMRAction
p3106
(dp3107
g8
I3
sg9
Nsg10
Nsg11
Nsg12
Nsg13
g14
sba(iamr_util.Actions
AMRAction
p3108
(dp3109
g8
I0
sg9
Nsg10
Nsg11
S'civilian'
p3110
sg12
S'c3'
p3111
sg13
g31
sba(iamr_util.Actions
AMRAction
p3112
(dp3113
g8
I0
sg9
Nsg10
Nsg11
S'nucleus'
p3114
sg12
S'n4'
p3115
sg13
g31
sba(iamr_util.Actions
AMRAction
p3116
(dp3117
g8
I0
sg9
Nsg10
Nsg11
S'energy'
p3118
sg12
g600
sg13
g31
sba(iamr_util.Actions
AMRAction
p3119
(dp3120
g8
I1
sg9
Nsg10
Nsg11
S'mod'
p3121
sg12
Nsg13
g83
sba(iamr_util.Actions
AMRAction
p3122
(dp3123
g8
I1
sg9
Nsg10
Nsg11
g3121
sg12
Nsg13
g83
sba(iamr_util.Actions
AMRAction
p3124
(dp3125
g8
I2
sg9
Nsg10
Nsg11
S'ARG1'
p3126
sg12
Nsg13
g107
sba(iamr_util.Actions
AMRAction
p3127
(dp3128
g8
I3
sg9
Nsg10
Nsg11
Nsg12
Nsg13
g14
sba(iamr_util.Actions
AMRAction
p3129
(dp3130
g8
I3
sg9
Nsg10
Nsg11
Nsg12
Nsg13
g14
sba(iamr_util.Actions
AMRAction
p3131
(dp3132
g8
I0
sg9
Nsg10
Nsg11
S'sensitive'
p3133
sg12
S's3'
p3134
sg13
g31
sba(iamr_util.Actions
AMRAction
p3135
(dp3136
g8
I0
sg9
Nsg10
Nsg11
S'region'
p3137
sg12
S'r2'
p3138
sg13
g31
sba(iamr_util.Actions
AMRAction
p3139
(dp3140
g8
I1
sg9
Nsg10
Nsg11
S'mod'
p3141
sg12
Nsg13
g83
sba(iamr_util.Actions
AMRAction
p3142
(dp3143
g8
I2
sg9
Nsg10
Nsg11
S'location'
p3144
sg12
Nsg13
g107
sba(iamr_util.Actions
AMRAction
p3145
(dp3146
g8
I2
sg9
Nsg10
Nsg11
S'ARG1'
p3147
sg12
Nsg13
g107
sba(iamr_util.Actions
AMRAction
p3148
(dp3149
g8
I3
sg9
Nsg10
Nsg11
Nsg12
Nsg13
g14
sba(iamr_util.Actions
AMRAction
p3150
(dp3151
g8
I3
sg9
Nsg10
Nsg11
Nsg12
Nsg13
g14
sba(iamr_util.Actions
AMRAction
p3152
(dp3153
g8
I0
sg9
Nsg10
Nsg11
S'risk-01'
p3154
sg12
S'r3'
p3155
sg13
g31
sba(iamr_util.Actions
AMRAction
p3156
(dp3157
g8
I3
sg9
Nsg10
Nsg11
Nsg12
Nsg13
g14
sba(iamr_util.Actions
AMRAction
p3158
(dp3159
g8
I0
sg9
Nsg10
Nsg11
S'military'
p3160
sg12
g187
sg13
g31
sba(iamr_util.Actions
AMRAction
p3161
(dp3162
g8
I0
sg9
Nsg10
Nsg11
S'nucleus'
p3163
sg12
S'n5'
p3164
sg13
g31
sba(iamr_util.Actions
AMRAction
p3165
(dp3166
g8
I0
sg9
Nsg10
Nsg11
S'program'
p3167
sg12
S'p2'
p3168
sg13
g31
sba(iamr_util.Actions
AMRAction
p3169
(dp3170
g8
I1
sg9
Nsg10
Nsg11
S'mod'
p3171
sg12
Nsg13
g83
sba(iamr_util.Actions
AMRAction
p3172
(dp3173
g8
I1
sg9
Nsg10
Nsg11
g3171
sg12
Nsg13
g83
sba(iamr_util.Actions
AMRAction
p3174
(dp3175
g8
I2
sg9
Nsg10
Nsg11
S'ARG2'
p3176
sg12
Nsg13
g107
sba(iamr_util.Actions
AMRAction
p3177
(dp3178
g8
I0
sg9
Nsg10
Nsg11
g1
(g137
g138
g139
tp3179
Rp3180
sg12
g3180
sg13
g31
sba(iamr_util.Actions
AMRAction
p3181
(dp3182
g8
I0
sg9
Nsg10
Nsg11
S'control-01'
p3183
sg12
S'c2'
p3184
sg13
g31
sba(iamr_util.Actions
AMRAction
p3185
(dp3186
g8
I1
sg9
Nsg10
Nsg11
S'polarity'
p3187
sg12
Nsg13
g83
sba(iamr_util.Actions
AMRAction
p3188
(dp3189
g8
I3
sg9
Nsg10
Nsg11
Nsg12
Nsg13
g14
sba(iamr_util.Actions
AMRAction
p3190
(dp3191
g8
I0
sg9
Nsg10
Nsg11
S'absolute'
p3192
sg12
S'a2'
p3193
sg13
g31
sba(iamr_util.Actions
AMRAction
p3194
(dp3195
g8
I2
sg9
Nsg10
Nsg11
S'degree'
p3196
sg12
Nsg13
g107
sba(iamr_util.Actions
AMRAction
p3197
(dp3198
g8
I2
sg9
Nsg10
Nsg11
S'condition'
p3199
sg12
Nsg13
g107
sba(iamr_util.Actions
AMRAction
p3200
(dp3201
g8
I2
sg9
Nsg10
Nsg11
S'ARG2'
p3202
sg12
Nsg13
g107
sba(iamr_util.Actions
AMRAction
p3203
(dp3204
g8
I2
sg9
Nsg10
Nsg11
S'ARG1'
p3205
sg12
Nsg13
g107
sba(iamr_util.Actions
AMRAction
p3206
(dp3207
g8
I3
sg9
Nsg10
Nsg11
Nsg12
Nsg13
g14
sbaS'(s / state-01~e.16\n      :ARG0 (p / person\n            :ARG0-of (h / have-org-role-91\n                  :ARG1 (r / research-institute\n                        :mod~e.6 (c / country))))\n      :ARG1~e.17 (a / associate-01~e.18\n            :ARG1~e.19 (s2 / spread-02~e.21\n                  :ARG1~e.22 (e / energy~e.25\n                        :mod (n4 / nucleus~e.24)\n                        :mod (c3 / civilian~e.23))\n                  :location~e.26 (r2 / region~e.29\n                        :mod (s3 / sensitive~e.28)))\n            :ARG2 (r3 / risk-01~e.32\n                  :ARG2~e.33 (p2 / program~e.36\n                        :mod (n5 / nucleus~e.35)\n                        :mod (m / military~e.34))\n                  :condition~e.37 (c2 / control-01~e.38 :polarity~e.37 -~e.37\n                        :degree (a2 / absolute~e.40)))))'
p3208
(dp3209
(lp3210
(lp3211
(dp3212
I1
tp3213
tp3214
Rp3215
ag1
(g2
g3
(S'Gunaratna stated the estimate was based on data gathered from the debriefing of captured militants , examination of documents seized from militant training camps and from intelligence reports .'
p3216
(lp3217
(iamr_util.Actions
AMRAction
p3218
(dp3219
g8
I3
sg9
Nsg10
Nsg11
Nsg12
Nsg13
g14
sba(iamr_util.Actions
AMRAction
p3220
(dp3221
g8
I0
sg9
Nsg10
Nsg11
S'state-01'
p3222
sg12
g179
sg13
g31
sba(iamr_util.Actions
AMRAction
p3223
(dp3224
g8
I3
sg9
Nsg10
Nsg11
Nsg12
Nsg13
g14
sba(iamr_util.Actions
AMRAction
p3225
(dp3226
g8
I0
sg9
Nsg10
Nsg11
S'estimate-01'
p3227
sg12
g600
sg13
g31
sba(iamr_util.Actions
AMRAction
p3228
(dp3229
g8
I3
sg9
Nsg10
Nsg11
Nsg12
Nsg13
g14
sba(iamr_util.Actions
AMRAction
p3230
(dp3231
g8
I0
sg9
Nsg10
Nsg11
S'base-02'
p3232
sg12
g151
sg13
g31
sba(iamr_util.Actions
AMRAction
p3233
(dp3234
g8
I1
sg9
Nsg10
Nsg11
S'ARG1'
p3235
sg12
Nsg13
g83
sba(iamr_util.Actions
AMRAction
p3236
(dp3237
g8
I3
sg9
Nsg10
Nsg11
Nsg12
Nsg13
g14
sba(iamr_util.Actions
AMRAction
p3238
(dp3239
g8
I0
sg9
Nsg10
Nsg11
S'data'
p3240
sg12
g266
sg13
g31
sba(iamr_util.Actions
AMRAction
p3241
(dp3242
g8
I0
sg9
Nsg10
Nsg11
S'gather-01'
p3243
sg12
g2936
sg13
g31
sba(iamr_util.Actions
AMRAction
p3244
(dp3245
g8
I1
sg9
Nsg10
Nsg11
S'ARG1'
p3246
sg12
Nsg13
g83
sba(iamr_util.Actions
AMRAction
p3247
(dp3248
g8
I3
sg9
Nsg10
Nsg11
Nsg12
Nsg13
g14
sba(iamr_util.Actions
AMRAction
p3249
(dp3250
g8
I3
sg9
Nsg10
Nsg11
Nsg12
Nsg13
g14
sba(iamr_util.Actions
AMRAction
p3251
(dp3252
g8
I0
sg9
Nsg10
Nsg11
S'debrief-00'
p3253
sg12
S'd2'
p3254
sg13
g31
sba(iamr_util.Actions
AMRAction
p3255
(dp3256
g8
I3
sg9
Nsg10
Nsg11
Nsg12
Nsg13
g14
sba(iamr_util.Actions
AMRAction
p3257
(dp3258
g8
I0
sg9
Nsg10
Nsg11
S'capture-01'
p3259
sg12
g249
sg13
g31
sba(iamr_util.Actions
AMRAction
p3260
(dp3261
g8
I0
sg9
Nsg10
Nsg11
S'militant'
p3262
sg12
g187
sg13
g31
sba(iamr_util.Actions
AMRAction
p3263
(dp3264
g8
I1
sg9
Nsg10
Nsg11
S'ARG1-of'
p3265
sg12
Nsg13
g83
sba(iamr_util.Actions
AMRAction
p3266
(dp3267
g8
I2
sg9
Nsg10
Nsg11
S'ARG1'
p3268
sg12
Nsg13
g107
sba(iamr_util.Actions
AMRAction
p3269
(dp3270
g8
I3
sg9
Nsg10
Nsg11
Nsg12
Nsg13
g14
sba(iamr_util.Actions
AMRAction
p3271
(dp3272
g8
I0
sg9
Nsg10
Nsg11
S'examine-01'
p3273
sg12
S'e2'
p3274
sg13
g31
sba(iamr_util.Actions
AMRAction
p3275
(dp3276
g8
I3
sg9
Nsg10
Nsg11
Nsg12
Nsg13
g14
sba(iamr_util.Actions
AMRAction
p3277
(dp3278
g8
I0
sg9
Nsg10
Nsg11
S'document'
p3279
sg12
S'd3'
p3280
sg13
g31
sba(iamr_util.Actions
AMRAction
p3281
(dp3282
g8
I0
sg9
Nsg10
Nsg11
S'seize-01'
p3283
sg12
S's2'
p3284
sg13
g31
sba(iamr_util.Actions
AMRAction
p3285
(dp3286
g8
I3
sg9
Nsg10
Nsg11
Nsg12
Nsg13
g14
sba(iamr_util.Actions
AMRAction
p3287
(dp3288
g8
I0
sg9
Nsg10
Nsg11
S'militant'
p3289
sg12
S'COREF_m_0'
p3290
sg13
g31
sba(iamr_util.Actions
AMRAction
p3291
(dp3292
g8
I0
sg9
Nsg10
Nsg11
S'train-01'
p3293
sg12
S't2'
p3294
sg13
g31
sba(iamr_util.Actions
AMRAction
p3295
(dp3296
g8
I1
sg9
Nsg10
Nsg11
S'mod'
p3297
sg12
Nsg13
g83
sba(iamr_util.Actions
AMRAction
p3298
(dp3299
g8
I0
sg9
Nsg10
Nsg11
S'camp'
p3300
sg12
S'c2'
p3301
sg13
g31
sba(iamr_util.Actions
AMRAction
p3302
(dp3303
g8
I1
sg9
Nsg10
Nsg11
S'location-of'
p3304
sg12
Nsg13
g83
sba(iamr_util.Actions
AMRAction
p3305
(dp3306
g8
I2
sg9
Nsg10
Nsg11
S'ARG2'
p3307
sg12
Nsg13
g107
sba(iamr_util.Actions
AMRAction
p3308
(dp3309
g8
I2
sg9
Nsg10
Nsg11
S'ARG1-of'
p3310
sg12
Nsg13
g107
sba(iamr_util.Actions
AMRAction
p3311
(dp3312
g8
I2
sg9
Nsg10
Nsg11
S'ARG1'
p3313
sg12
Nsg13
g107
sba(iamr_util.Actions
AMRAction
p3314
(dp3315
g8
I0
sg9
Nsg10
Nsg11
S'and'
p3316
sg12
g67
sg13
g31
sba(iamr_util.Actions
AMRAction
p3317
(dp3318
g8
I1
sg9
Nsg10
Nsg11
S'op2'
p3319
sg12
Nsg13
g83
sba(iamr_util.Actions
AMRAction
p3320
(dp3321
g8
I1
sg9
Nsg10
Nsg11
S'op1'
p3322
sg12
Nsg13
g83
sba(iamr_util.Actions
AMRAction
p3323
(dp3324
g8
I3
sg9
Nsg10
Nsg11
Nsg12
Nsg13
g14
sba(iamr_util.Actions
AMRAction
p3325
(dp3326
g8
I0
sg9
Nsg10
Nsg11
S'intelligence'
p3327
sg12
g75
sg13
g31
sba(iamr_util.Actions
AMRAction
p3328
(dp3329
g8
I0
sg9
Nsg10
Nsg11
S'report-01'
p3330
sg12
g30
sg13
g31
sba(iamr_util.Actions
AMRAction
p3331
(dp3332
g8
I1
sg9
Nsg10
Nsg11
S'ARG0'
p3333
sg12
Nsg13
g83
sba(iamr_util.Actions
AMRAction
p3334
(dp3335
g8
I2
sg9
Nsg10
Nsg11
S'op3'
p3336
sg12
Nsg13
g107
sba(iamr_util.Actions
AMRAction
p3337
(dp3338
g8
I2
sg9
Nsg10
Nsg11
S'source'
p3339
sg12
Nsg13
g107
sba(iamr_util.Actions
AMRAction
p3340
(dp3341
g8
I2
sg9
Nsg10
Nsg11
S'ARG2'
p3342
sg12
Nsg13
g107
sba(iamr_util.Actions
AMRAction
p3343
(dp3344
g8
I2
sg9
Nsg10
Nsg11
S'ARG1'
p3345
sg12
Nsg13
g107
sba(iamr_util.Actions
AMRAction
p3346
(dp3347
g8
I3
sg9
Nsg10
Nsg11
Nsg12
Nsg13
g14
sbaS'(s / state-01~e.1\n      :ARG0 (p / person)\n      :ARG1 (b / base-02~e.5\n            :ARG1 (e / estimate-01~e.3)\n            :ARG2~e.6 (g / gather-01~e.8\n                  :ARG1 (d / data~e.7)\n                  :source~e.9,20,25 (a / and~e.24\n                        :op1 (d2 / debrief-00~e.11\n                              :ARG1~e.12 (m / militant~e.14\n                                    :ARG1-of (c / capture-01~e.13)))\n                        :op2 (e2 / examine-01~e.16\n                              :ARG1~e.17 (d3 / document~e.18\n                                    :ARG1-of (s2 / seize-01~e.19\n                                          :ARG2~e.20 (c2 / camp~e.23\n                                                :location-of (t2 / train-01~e.22\n                                                      :mod (COREF_m_0 / militant~e.21))))))\n                        :op3 (r / report-01~e.27\n                              :ARG0 (i / intelligence~e.26))))))'
p3348
(dp3349
(lp3350
(lp3351
(dp3352
I1
tp3353
tp3354
Rp3355
ag1
(g2
g3
(S"The South African litigation Centre has filed an urgent application in Zimbabwe 's High Court ."
p3356
(lp3357
(iamr_util.Actions
AMRAction
p3358
(dp3359
g8
I3
sg9
Nsg10
Nsg11
Nsg12
Nsg13
g14
sba(iamr_util.Actions
AMRAction
p3360
(dp3361
g8
I3
sg9
Nsg10
Nsg11
Nsg12
Nsg13
g14
sba(iamr_util.Actions
AMRAction
p3362
(dp3363
g8
I3
sg9
Nsg10
Nsg11
Nsg12
Nsg13
g14
sba(iamr_util.Actions
AMRAction
p3364
(dp3365
g8
I3
sg9
Nsg10
Nsg11
Nsg12
Nsg13
g14
sba(iamr_util.Actions
AMRAction
p3366
(dp3367
g8
I3
sg9
Nsg10
Nsg11
Nsg12
Nsg13
g14
sba(iamr_util.Actions
AMRAction
p3368
(dp3369
g8
I3
sg9
Nsg10
Nsg11
Nsg12
Nsg13
g14
sba(iamr_util.Actions
AMRAction
p3370
(dp3371
g8
I0
sg9
Nsg10
Nsg11
S'file-01'
p3372
sg12
g1808
sg13
g31
sba(iamr_util.Actions
AMRAction
p3373
(dp3374
g8
I3
sg9
Nsg10
Nsg11
Nsg12
Nsg13
g14
sba(iamr_util.Actions
AMRAction
p3375
(dp3376
g8
I0
sg9
Nsg10
Nsg11
S'urgent'
p3377
sg12
g948
sg13
g31
sba(iamr_util.Actions
AMRAction
p3378
(dp3379
g8
I0
sg9
Nsg10
Nsg11
S'application'
p3380
sg12
g67
sg13
g31
sba(iamr_util.Actions
AMRAction
p3381
(dp3382
g8
I1
sg9
Nsg10
Nsg11
S'mod'
p3383
sg12
Nsg13
g83
sba(iamr_util.Actions
AMRAction
p3384
(dp3385
g8
I2
sg9
Nsg10
Nsg11
S'ARG1'
p3386
sg12
Nsg13
g107
sba(iamr_util.Actions
AMRAction
p3387
(dp3388
g8
I3
sg9
Nsg10
Nsg11
Nsg12
Nsg13
g14
sba(iamr_util.Actions
AMRAction
p3389
(dp3390
g8
I3
sg9
Nsg10
Nsg11
Nsg12
Nsg13
g14
sba(iamr_util.Actions
AMRAction
p3391
(dp3392
g8
I3
sg9
Nsg10
Nsg11
Nsg12
Nsg13
g14
sba(iamr_util.Actions
AMRAction
p3393
(dp3394
g8
I3
sg9
Nsg10
Nsg11
Nsg12
Nsg13
g14
sba(iamr_util.Actions
AMRAction
p3395
(dp3396
g8
I3
sg9
Nsg10
Nsg11
Nsg12
Nsg13
g14
sba(iamr_util.Actions
AMRAction
p3397
(dp3398
g8
I3
sg9
Nsg10
Nsg11
Nsg12
Nsg13
g14
sbaS'(f / file-01~e.6\n      :ARG0 (o / organization)\n      :ARG1 (a / application~e.9\n            :mod (u / urgent~e.8))\n      :ARG2~e.10 (g / government-organization\n            :mod~e.12 (c2 / country)))'
p3399
(dp3400
(lp3401
(lp3402
(dp3403
I1
tp3404
tp3405
Rp3406
ag1
(g2
g3
(S'The IAEA has forwarded the IAEA report to the UN Security Council .'
p3407
(lp3408
(iamr_util.Actions
AMRAction
p3409
(dp3410
g8
I3
sg9
Nsg10
Nsg11
Nsg12
Nsg13
g14
sba(iamr_util.Actions
AMRAction
p3411
(dp3412
g8
I3
sg9
Nsg10
Nsg11
Nsg12
Nsg13
g14
sba(iamr_util.Actions
AMRAction
p3413
(dp3414
g8
I3
sg9
Nsg10
Nsg11
Nsg12
Nsg13
g14
sba(iamr_util.Actions
AMRAction
p3415
(dp3416
g8
I0
sg9
Nsg10
Nsg11
S'forward-01'
p3417
sg12
g1808
sg13
g31
sba(iamr_util.Actions
AMRAction
p3418
(dp3419
g8
I3
sg9
Nsg10
Nsg11
Nsg12
Nsg13
g14
sba(iamr_util.Actions
AMRAction
p3420
(dp3421
g8
I0
sg9
Nsg10
Nsg11
S'organization'
p3422
sg12
S'COREF_o_0'
p3423
sg13
g31
sba(iamr_util.Actions
AMRAction
p3424
(dp3425
g8
I0
sg9
Nsg10
Nsg11
S'report-01'
p3426
sg12
g30
sg13
g31
sba(iamr_util.Actions
AMRAction
p3427
(dp3428
g8
I1
sg9
Nsg10
Nsg11
S'ARG0'
p3429
sg12
Nsg13
g83
sba(iamr_util.Actions
AMRAction
p3430
(dp3431
g8
I2
sg9
Nsg10
Nsg11
S'ARG1'
p3432
sg12
Nsg13
g107
sba(iamr_util.Actions
AMRAction
p3433
(dp3434
g8
I3
sg9
Nsg10
Nsg11
Nsg12
Nsg13
g14
sba(iamr_util.Actions
AMRAction
p3435
(dp3436
g8
I3
sg9
Nsg10
Nsg11
Nsg12
Nsg13
g14
sba(iamr_util.Actions
AMRAction
p3437
(dp3438
g8
I3
sg9
Nsg10
Nsg11
Nsg12
Nsg13
g14
sba(iamr_util.Actions
AMRAction
p3439
(dp3440
g8
I3
sg9
Nsg10
Nsg11
Nsg12
Nsg13
g14
sba(iamr_util.Actions
AMRAction
p3441
(dp3442
g8
I3
sg9
Nsg10
Nsg11
Nsg12
Nsg13
g14
sba(iamr_util.Actions
AMRAction
p3443
(dp3444
g8
I3
sg9
Nsg10
Nsg11
Nsg12
Nsg13
g14
sbaS'(f / forward-01~e.3\n      :ARG0 (o / organization)\n      :ARG1 (r / report-01~e.6\n            :ARG0 (COREF_o_0 / organization~e.5))\n      :ARG2~e.7 (o3 / organization))'
p3445
(dp3446
(lp3447
(lp3448
(dp3449
I1
tp3450
tp3451
Rp3452
ag1
(g2
g3
(S'Iran has not provided the IAEA with the locations of its centrifuge manufacturing facilities .'
p3453
(lp3454
(iamr_util.Actions
AMRAction
p3455
(dp3456
g8
I3
sg9
Nsg10
Nsg11
Nsg12
Nsg13
g14
sba(iamr_util.Actions
AMRAction
p3457
(dp3458
g8
I3
sg9
Nsg10
Nsg11
Nsg12
Nsg13
g14
sba(iamr_util.Actions
AMRAction
p3459
(dp3460
g8
I0
sg9
Nsg10
Nsg11
g1
(g137
g138
g139
tp3461
Rp3462
sg12
g3462
sg13
g31
sba(iamr_util.Actions
AMRAction
p3463
(dp3464
g8
I0
sg9
Nsg10
Nsg11
S'provide-01'
p3465
sg12
g183
sg13
g31
sba(iamr_util.Actions
AMRAction
p3466
(dp3467
g8
I1
sg9
Nsg10
Nsg11
S'polarity'
p3468
sg12
Nsg13
g83
sba(iamr_util.Actions
AMRAction
p3469
(dp3470
g8
I3
sg9
Nsg10
Nsg11
Nsg12
Nsg13
g14
sba(iamr_util.Actions
AMRAction
p3471
(dp3472
g8
I3
sg9
Nsg10
Nsg11
Nsg12
Nsg13
g14
sba(iamr_util.Actions
AMRAction
p3473
(dp3474
g8
I3
sg9
Nsg10
Nsg11
Nsg12
Nsg13
g14
sba(iamr_util.Actions
AMRAction
p3475
(dp3476
g8
I3
sg9
Nsg10
Nsg11
Nsg12
Nsg13
g14
sba(iamr_util.Actions
AMRAction
p3477
(dp3478
g8
I0
sg9
Nsg10
Nsg11
S'location'
p3479
sg12
g230
sg13
g31
sba(iamr_util.Actions
AMRAction
p3480
(dp3481
g8
I3
sg9
Nsg10
Nsg11
Nsg12
Nsg13
g14
sba(iamr_util.Actions
AMRAction
p3482
(dp3483
g8
I0
sg9
Nsg10
Nsg11
S'country'
p3484
sg12
S'COREF_c_0'
p3485
sg13
g31
sba(iamr_util.Actions
AMRAction
p3486
(dp3487
g8
I0
sg9
Nsg10
Nsg11
S'centrifuge'
p3488
sg12
S'c2'
p3489
sg13
g31
sba(iamr_util.Actions
AMRAction
p3490
(dp3491
g8
I0
sg9
Nsg10
Nsg11
S'manufacture-01'
p3492
sg12
g187
sg13
g31
sba(iamr_util.Actions
AMRAction
p3493
(dp3494
g8
I1
sg9
Nsg10
Nsg11
S'ARG1'
p3495
sg12
Nsg13
g83
sba(iamr_util.Actions
AMRAction
p3496
(dp3497
g8
I0
sg9
Nsg10
Nsg11
S'facility'
p3498
sg12
g1808
sg13
g31
sba(iamr_util.Actions
AMRAction
p3499
(dp3500
g8
I1
sg9
Nsg10
Nsg11
S'ARG0-of'
p3501
sg12
Nsg13
g83
sba(iamr_util.Actions
AMRAction
p3502
(dp3503
g8
I1
sg9
Nsg10
Nsg11
S'poss'
p3504
sg12
Nsg13
g83
sba(iamr_util.Actions
AMRAction
p3505
(dp3506
g8
I2
sg9
Nsg10
Nsg11
S'location-of'
p3507
sg12
Nsg13
g107
sba(iamr_util.Actions
AMRAction
p3508
(dp3509
g8
I2
sg9
Nsg10
Nsg11
S'ARG1'
p3510
sg12
Nsg13
g107
sba(iamr_util.Actions
AMRAction
p3511
(dp3512
g8
I3
sg9
Nsg10
Nsg11
Nsg12
Nsg13
g14
sbaS'(p / provide-01~e.3 :polarity~e.2 -~e.2\n      :ARG0 (c / country)\n      :ARG1~e.6 (l / location~e.8\n            :location-of~e.9 (f / facility~e.13\n                  :ARG0-of (m / manufacture-01~e.12\n                        :ARG1 (c2 / centrifuge~e.11))\n                  :poss~e.10 (COREF_c_0 / country~e.10)))\n      :ARG2 (o / organization))'
p3513
(dp3514
(lp3515
(lp3516
(dp3517
I1
tp3518
tp3519
Rp3520
ag1
(g2
g3
(S'The Libyan Interior Ministry stated on date-entity that Libyan authorities have seized mass-quantity of heroin .'
p3521
(lp3522
(iamr_util.Actions
AMRAction
p3523
(dp3524
g8
I3
sg9
Nsg10
Nsg11
Nsg12
Nsg13
g14
sba(iamr_util.Actions
AMRAction
p3525
(dp3526
g8
I3
sg9
Nsg10
Nsg11
Nsg12
Nsg13
g14
sba(iamr_util.Actions
AMRAction
p3527
(dp3528
g8
I3
sg9
Nsg10
Nsg11
Nsg12
Nsg13
g14
sba(iamr_util.Actions
AMRAction
p3529
(dp3530
g8
I3
sg9
Nsg10
Nsg11
Nsg12
Nsg13
g14
sba(iamr_util.Actions
AMRAction
p3531
(dp3532
g8
I0
sg9
Nsg10
Nsg11
S'state-01'
p3533
sg12
g179
sg13
g31
sba(iamr_util.Actions
AMRAction
p3534
(dp3535
g8
I3
sg9
Nsg10
Nsg11
Nsg12
Nsg13
g14
sba(iamr_util.Actions
AMRAction
p3536
(dp3537
g8
I0
sg9
Nsg10
Nsg11
S'date-entity'
p3538
sg12
g266
sg13
g31
sba(iamr_util.Actions
AMRAction
p3539
(dp3540
g8
I2
sg9
Nsg10
Nsg11
S'time'
p3541
sg12
Nsg13
g107
sba(iamr_util.Actions
AMRAction
p3542
(dp3543
g8
I3
sg9
Nsg10
Nsg11
Nsg12
Nsg13
g14
sba(iamr_util.Actions
AMRAction
p3544
(dp3545
g8
I0
sg9
Nsg10
Nsg11
S'country'
p3546
sg12
S'COREF_c_0'
p3547
sg13
g31
sba(iamr_util.Actions
AMRAction
p3548
(dp3549
g8
I0
sg9
Nsg10
Nsg11
S'authority'
p3550
sg12
g67
sg13
g31
sba(iamr_util.Actions
AMRAction
p3551
(dp3552
g8
I1
sg9
Nsg10
Nsg11
S'mod'
p3553
sg12
Nsg13
g83
sba(iamr_util.Actions
AMRAction
p3554
(dp3555
g8
I3
sg9
Nsg10
Nsg11
Nsg12
Nsg13
g14
sba(iamr_util.Actions
AMRAction
p3556
(dp3557
g8
I0
sg9
Nsg10
Nsg11
S'seize-01'
p3558
sg12
S's2'
p3559
sg13
g31
sba(iamr_util.Actions
AMRAction
p3560
(dp3561
g8
I1
sg9
Nsg10
Nsg11
S'ARG0'
p3562
sg12
Nsg13
g83
sba(iamr_util.Actions
AMRAction
p3563
(dp3564
g8
I0
sg9
Nsg10
Nsg11
S'mass-quantity'
p3565
sg12
g187
sg13
g31
sba(iamr_util.Actions
AMRAction
p3566
(dp3567
g8
I3
sg9
Nsg10
Nsg11
Nsg12
Nsg13
g14
sba(iamr_util.Actions
AMRAction
p3568
(dp3569
g8
I0
sg9
Nsg10
Nsg11
S'heroin'
p3570
sg12
g775
sg13
g31
sba(iamr_util.Actions
AMRAction
p3571
(dp3572
g8
I1
sg9
Nsg10
Nsg11
S'quant'
p3573
sg12
Nsg13
g83
sba(iamr_util.Actions
AMRAction
p3574
(dp3575
g8
I2
sg9
Nsg10
Nsg11
S'ARG1'
p3576
sg12
Nsg13
g107
sba(iamr_util.Actions
AMRAction
p3577
(dp3578
g8
I2
sg9
Nsg10
Nsg11
S'ARG1'
p3579
sg12
Nsg13
g107
sba(iamr_util.Actions
AMRAction
p3580
(dp3581
g8
I3
sg9
Nsg10
Nsg11
Nsg12
Nsg13
g14
sbaS'(s / state-01~e.4\n      :ARG0 (g / government-organization\n            :mod (c / country))\n      :ARG1~e.9 (s2 / seize-01~e.13\n            :ARG0 (a / authority~e.11\n                  :mod (COREF_c_0 / country~e.10))\n            :ARG1 (h / heroin~e.17\n                  :quant~e.16 (m / mass-quantity :quant 110~e.14\n                        :unit (p / pound~e.15))))\n      :time~e.5 (d / date-entity :year 2008~e.8 :month~e.7 7~e.7 :day 28~e.6))'
p3582
(dp3583
(lp3584
(lp3585
(dp3586
g266
(iamr_util.Node
Node
p3587
(dp3588
g297
Nsg298
(lp3589
((iamr_util.Node
Node
p3590
(dp3591
g297
g1
(g302
g138
S'2008'
p3592
tp3593
Rp3594
sg298
(lp3595
sg11
NsbS'year'
p3596
tp3597
a((iamr_util.Node
Node
p3598
(dp3599
g297
g1
(g302
g138
S'28'
p3600
tp3601
Rp3602
sg298
(lp3603
sg11
NsbS'day'
p3604
tp3605
a((iamr_util.Node
Node
p3606
(dp3607
g297
g1
(g302
g138
S'7'
p3608
tp3609
Rp3610
sg298
(lp3611
sg11
NsbS'month'
p3612
tp3613
asg11
g325
sbsI1
tp3614
tp3615
Rp3616
ag1
(g2
g3
(S'The Libyan Interior Ministry stated on date-entity that Libyan authorities have seized mass-quantity ( 110 pounds ) of heroin in a record haul .'
p3617
(lp3618
(iamr_util.Actions
AMRAction
p3619
(dp3620
g8
I3
sg9
Nsg10
Nsg11
Nsg12
Nsg13
g14
sba(iamr_util.Actions
AMRAction
p3621
(dp3622
g8
I3
sg9
Nsg10
Nsg11
Nsg12
Nsg13
g14
sba(iamr_util.Actions
AMRAction
p3623
(dp3624
g8
I3
sg9
Nsg10
Nsg11
Nsg12
Nsg13
g14
sba(iamr_util.Actions
AMRAction
p3625
(dp3626
g8
I3
sg9
Nsg10
Nsg11
Nsg12
Nsg13
g14
sba(iamr_util.Actions
AMRAction
p3627
(dp3628
g8
I0
sg9
Nsg10
Nsg11
S'state-01'
p3629
sg12
g179
sg13
g31
sba(iamr_util.Actions
AMRAction
p3630
(dp3631
g8
I3
sg9
Nsg10
Nsg11
Nsg12
Nsg13
g14
sba(iamr_util.Actions
AMRAction
p3632
(dp3633
g8
I0
sg9
Nsg10
Nsg11
S'date-entity'
p3634
sg12
g266
sg13
g31
sba(iamr_util.Actions
AMRAction
p3635
(dp3636
g8
I2
sg9
Nsg10
Nsg11
S'time'
p3637
sg12
Nsg13
g107
sba(iamr_util.Actions
AMRAction
p3638
(dp3639
g8
I3
sg9
Nsg10
Nsg11
Nsg12
Nsg13
g14
sba(iamr_util.Actions
AMRAction
p3640
(dp3641
g8
I0
sg9
Nsg10
Nsg11
S'country'
p3642
sg12
S'COREF_c_0'
p3643
sg13
g31
sba(iamr_util.Actions
AMRAction
p3644
(dp3645
g8
I0
sg9
Nsg10
Nsg11
S'authority'
p3646
sg12
g67
sg13
g31
sba(iamr_util.Actions
AMRAction
p3647
(dp3648
g8
I1
sg9
Nsg10
Nsg11
S'mod'
p3649
sg12
Nsg13
g83
sba(iamr_util.Actions
AMRAction
p3650
(dp3651
g8
I3
sg9
Nsg10
Nsg11
Nsg12
Nsg13
g14
sba(iamr_util.Actions
AMRAction
p3652
(dp3653
g8
I0
sg9
Nsg10
Nsg11
S'seize-01'
p3654
sg12
S's2'
p3655
sg13
g31
sba(iamr_util.Actions
AMRAction
p3656
(dp3657
g8
I1
sg9
Nsg10
Nsg11
S'ARG0'
p3658
sg12
Nsg13
g83
sba(iamr_util.Actions
AMRAction
p3659
(dp3660
g8
I0
sg9
Nsg10
Nsg11
S'mass-quantity'
p3661
sg12
g187
sg13
g31
sba(iamr_util.Actions
AMRAction
p3662
(dp3663
g8
I3
sg9
Nsg10
Nsg11
Nsg12
Nsg13
g14
sba(iamr_util.Actions
AMRAction
p3664
(dp3665
g8
I3
sg9
Nsg10
Nsg11
Nsg12
Nsg13
g14
sba(iamr_util.Actions
AMRAction
p3666
(dp3667
g8
I3
sg9
Nsg10
Nsg11
Nsg12
Nsg13
g14
sba(iamr_util.Actions
AMRAction
p3668
(dp3669
g8
I3
sg9
Nsg10
Nsg11
Nsg12
Nsg13
g14
sba(iamr_util.Actions
AMRAction
p3670
(dp3671
g8
I3
sg9
Nsg10
Nsg11
Nsg12
Nsg13
g14
sba(iamr_util.Actions
AMRAction
p3672
(dp3673
g8
I0
sg9
Nsg10
Nsg11
S'heroin'
p3674
sg12
g775
sg13
g31
sba(iamr_util.Actions
AMRAction
p3675
(dp3676
g8
I1
sg9
Nsg10
Nsg11
S'quant'
p3677
sg12
Nsg13
g83
sba(iamr_util.Actions
AMRAction
p3678
(dp3679
g8
I2
sg9
Nsg10
Nsg11
S'ARG1'
p3680
sg12
Nsg13
g107
sba(iamr_util.Actions
AMRAction
p3681
(dp3682
g8
I3
sg9
Nsg10
Nsg11
Nsg12
Nsg13
g14
sba(iamr_util.Actions
AMRAction
p3683
(dp3684
g8
I3
sg9
Nsg10
Nsg11
Nsg12
Nsg13
g14
sba(iamr_util.Actions
AMRAction
p3685
(dp3686
g8
I0
sg9
Nsg10
Nsg11
S'record'
p3687
sg12
g30
sg13
g31
sba(iamr_util.Actions
AMRAction
p3688
(dp3689
g8
I0
sg9
Nsg10
Nsg11
S'haul-01'
p3690
sg12
S'h2'
p3691
sg13
g31
sba(iamr_util.Actions
AMRAction
p3692
(dp3693
g8
I1
sg9
Nsg10
Nsg11
S'mod'
p3694
sg12
Nsg13
g83
sba(iamr_util.Actions
AMRAction
p3695
(dp3696
g8
I2
sg9
Nsg10
Nsg11
S'time'
p3697
sg12
Nsg13
g107
sba(iamr_util.Actions
AMRAction
p3698
(dp3699
g8
I2
sg9
Nsg10
Nsg11
S'ARG1'
p3700
sg12
Nsg13
g107
sba(iamr_util.Actions
AMRAction
p3701
(dp3702
g8
I3
sg9
Nsg10
Nsg11
Nsg12
Nsg13
g14
sbaS'(s / state-01~e.4\n      :ARG0 (g / government-organization\n            :mod (c / country))\n      :ARG1~e.9 (s2 / seize-01~e.13\n            :ARG0 (a / authority~e.11\n                  :mod (COREF_c_0 / country~e.10))\n            :ARG1 (h / heroin~e.21\n                  :quant (m / mass-quantity :quant 50~e.14\n                        :unit (k / kilogram~e.15)))\n            :time~e.22 (h2 / haul-01~e.25\n                  :mod (r / record~e.24)))\n      :time~e.5 (d / date-entity :year 2008~e.8 :month~e.7 7~e.7 :day 28~e.6))'
p3703
(dp3704
(lp3705
(lp3706
(dp3707
g266
(iamr_util.Node
Node
p3708
(dp3709
g297
Nsg298
(lp3710
((iamr_util.Node
Node
p3711
(dp3712
g297
g1
(g302
g138
S'2008'
p3713
tp3714
Rp3715
sg298
(lp3716
sg11
NsbS'year'
p3717
tp3718
a((iamr_util.Node
Node
p3719
(dp3720
g297
g1
(g302
g138
S'28'
p3721
tp3722
Rp3723
sg298
(lp3724
sg11
NsbS'day'
p3725
tp3726
a((iamr_util.Node
Node
p3727
(dp3728
g297
g1
(g302
g138
g3608
tp3729
Rp3730
sg298
(lp3731
sg11
NsbS'month'
p3732
tp3733
asg11
g325
sbsI1
tp3734
tp3735
Rp3736
ag1
(g2
g3
(S'Thailand has stated it will sign the agreement .'
p3737
(lp3738
(iamr_util.Actions
AMRAction
p3739
(dp3740
g8
I3
sg9
Nsg10
Nsg11
Nsg12
Nsg13
g14
sba(iamr_util.Actions
AMRAction
p3741
(dp3742
g8
I3
sg9
Nsg10
Nsg11
Nsg12
Nsg13
g14
sba(iamr_util.Actions
AMRAction
p3743
(dp3744
g8
I0
sg9
Nsg10
Nsg11
S'state-01'
p3745
sg12
g179
sg13
g31
sba(iamr_util.Actions
AMRAction
p3746
(dp3747
g8
I0
sg9
Nsg10
Nsg11
S'country'
p3748
sg12
S'COREF_c2_0'
p3749
sg13
g31
sba(iamr_util.Actions
AMRAction
p3750
(dp3751
g8
I3
sg9
Nsg10
Nsg11
Nsg12
Nsg13
g14
sba(iamr_util.Actions
AMRAction
p3752
(dp3753
g8
I0
sg9
Nsg10
Nsg11
S'sign-02'
p3754
sg12
S's2'
p3755
sg13
g31
sba(iamr_util.Actions
AMRAction
p3756
(dp3757
g8
I1
sg9
Nsg10
Nsg11
S'ARG0'
p3758
sg12
Nsg13
g83
sba(iamr_util.Actions
AMRAction
p3759
(dp3760
g8
I3
sg9
Nsg10
Nsg11
Nsg12
Nsg13
g14
sba(iamr_util.Actions
AMRAction
p3761
(dp3762
g8
I0
sg9
Nsg10
Nsg11
S'agree-01'
p3763
sg12
g67
sg13
g31
sba(iamr_util.Actions
AMRAction
p3764
(dp3765
g8
I2
sg9
Nsg10
Nsg11
S'ARG1'
p3766
sg12
Nsg13
g107
sba(iamr_util.Actions
AMRAction
p3767
(dp3768
g8
I2
sg9
Nsg10
Nsg11
S'ARG1'
p3769
sg12
Nsg13
g107
sba(iamr_util.Actions
AMRAction
p3770
(dp3771
g8
I3
sg9
Nsg10
Nsg11
Nsg12
Nsg13
g14
sbaS'(s / state-01~e.2\n      :ARG0 (c2 / country)\n      :ARG1 (s2 / sign-02~e.5\n            :ARG0 (COREF_c2_0 / country~e.3)\n            :ARG1 (a / agree-01~e.7)))'
p3772
(dp3773
(lp3774
(lp3775
(dp3776
I1
tp3777
tp3778
Rp3779
ag1
(g2
g3
(S'NHK television in Japan reported --'
p3780
(lp3781
(iamr_util.Actions
AMRAction
p3782
(dp3783
g8
I3
sg9
Nsg10
Nsg11
Nsg12
Nsg13
g14
sba(iamr_util.Actions
AMRAction
p3784
(dp3785
g8
I3
sg9
Nsg10
Nsg11
Nsg12
Nsg13
g14
sba(iamr_util.Actions
AMRAction
p3786
(dp3787
g8
I3
sg9
Nsg10
Nsg11
Nsg12
Nsg13
g14
sba(iamr_util.Actions
AMRAction
p3788
(dp3789
g8
I3
sg9
Nsg10
Nsg11
Nsg12
Nsg13
g14
sba(iamr_util.Actions
AMRAction
p3790
(dp3791
g8
I0
sg9
Nsg10
Nsg11
S'report-01'
p3792
sg12
g30
sg13
g31
sba(iamr_util.Actions
AMRAction
p3793
(dp3794
g8
I3
sg9
Nsg10
Nsg11
Nsg12
Nsg13
g14
sbaS'(r / report-01~e.4\n      :ARG0 (c2 / company\n            :location (c / country)))'
p3795
(dp3796
(lp3797
(lp3798
(dp3799
I1
tp3800
tp3801
Rp3802
ag1
(g2
g3
(S"The North Atlantic Treaty Organization 's International Security Assistance Force stated that the North Atlantic Treaty Organization soldiers were on routine patrol when the bomb detonated in the Sharan district of Paktika province on date-entity ."
p3803
(lp3804
(iamr_util.Actions
AMRAction
p3805
(dp3806
g8
I3
sg9
Nsg10
Nsg11
Nsg12
Nsg13
g14
sba(iamr_util.Actions
AMRAction
p3807
(dp3808
g8
I3
sg9
Nsg10
Nsg11
Nsg12
Nsg13
g14
sba(iamr_util.Actions
AMRAction
p3809
(dp3810
g8
I3
sg9
Nsg10
Nsg11
Nsg12
Nsg13
g14
sba(iamr_util.Actions
AMRAction
p3811
(dp3812
g8
I3
sg9
Nsg10
Nsg11
Nsg12
Nsg13
g14
sba(iamr_util.Actions
AMRAction
p3813
(dp3814
g8
I3
sg9
Nsg10
Nsg11
Nsg12
Nsg13
g14
sba(iamr_util.Actions
AMRAction
p3815
(dp3816
g8
I3
sg9
Nsg10
Nsg11
Nsg12
Nsg13
g14
sba(iamr_util.Actions
AMRAction
p3817
(dp3818
g8
I3
sg9
Nsg10
Nsg11
Nsg12
Nsg13
g14
sba(iamr_util.Actions
AMRAction
p3819
(dp3820
g8
I3
sg9
Nsg10
Nsg11
Nsg12
Nsg13
g14
sba(iamr_util.Actions
AMRAction
p3821
(dp3822
g8
I3
sg9
Nsg10
Nsg11
Nsg12
Nsg13
g14
sba(iamr_util.Actions
AMRAction
p3823
(dp3824
g8
I3
sg9
Nsg10
Nsg11
Nsg12
Nsg13
g14
sba(iamr_util.Actions
AMRAction
p3825
(dp3826
g8
I0
sg9
Nsg10
Nsg11
S'state-01'
p3827
sg12
g179
sg13
g31
sba(iamr_util.Actions
AMRAction
p3828
(dp3829
g8
I3
sg9
Nsg10
Nsg11
Nsg12
Nsg13
g14
sba(iamr_util.Actions
AMRAction
p3830
(dp3831
g8
I3
sg9
Nsg10
Nsg11
Nsg12
Nsg13
g14
sba(iamr_util.Actions
AMRAction
p3832
(dp3833
g8
I0
sg9
Nsg10
Nsg11
S'military'
p3834
sg12
S'COREF_m_0'
p3835
sg13
g31
sba(iamr_util.Actions
AMRAction
p3836
(dp3837
g8
I3
sg9
Nsg10
Nsg11
Nsg12
Nsg13
g14
sba(iamr_util.Actions
AMRAction
p3838
(dp3839
g8
I3
sg9
Nsg10
Nsg11
Nsg12
Nsg13
g14
sba(iamr_util.Actions
AMRAction
p3840
(dp3841
g8
I3
sg9
Nsg10
Nsg11
Nsg12
Nsg13
g14
sba(iamr_util.Actions
AMRAction
p3842
(dp3843
g8
I0
sg9
Nsg10
Nsg11
S'soldier'
p3844
sg12
S's2'
p3845
sg13
g31
sba(iamr_util.Actions
AMRAction
p3846
(dp3847
g8
I1
sg9
Nsg10
Nsg11
S'mod'
p3848
sg12
Nsg13
g83
sba(iamr_util.Actions
AMRAction
p3849
(dp3850
g8
I3
sg9
Nsg10
Nsg11
Nsg12
Nsg13
g14
sba(iamr_util.Actions
AMRAction
p3851
(dp3852
g8
I3
sg9
Nsg10
Nsg11
Nsg12
Nsg13
g14
sba(iamr_util.Actions
AMRAction
p3853
(dp3854
g8
I0
sg9
Nsg10
Nsg11
S'routine'
p3855
sg12
g30
sg13
g31
sba(iamr_util.Actions
AMRAction
p3856
(dp3857
g8
I0
sg9
Nsg10
Nsg11
S'patrol-01'
p3858
sg12
S'p2'
p3859
sg13
g31
sba(iamr_util.Actions
AMRAction
p3860
(dp3861
g8
I1
sg9
Nsg10
Nsg11
S'mod'
p3862
sg12
Nsg13
g83
sba(iamr_util.Actions
AMRAction
p3863
(dp3864
g8
I1
sg9
Nsg10
Nsg11
S'ARG0'
p3865
sg12
Nsg13
g83
sba(iamr_util.Actions
AMRAction
p3866
(dp3867
g8
I3
sg9
Nsg10
Nsg11
Nsg12
Nsg13
g14
sba(iamr_util.Actions
AMRAction
p3868
(dp3869
g8
I3
sg9
Nsg10
Nsg11
Nsg12
Nsg13
g14
sba(iamr_util.Actions
AMRAction
p3870
(dp3871
g8
I0
sg9
Nsg10
Nsg11
S'bomb'
p3872
sg12
g151
sg13
g31
sba(iamr_util.Actions
AMRAction
p3873
(dp3874
g8
I0
sg9
Nsg10
Nsg11
S'detonate-01'
p3875
sg12
S'd2'
p3876
sg13
g31
sba(iamr_util.Actions
AMRAction
p3877
(dp3878
g8
I1
sg9
Nsg10
Nsg11
S'ARG1'
p3879
sg12
Nsg13
g83
sba(iamr_util.Actions
AMRAction
p3880
(dp3881
g8
I3
sg9
Nsg10
Nsg11
Nsg12
Nsg13
g14
sba(iamr_util.Actions
AMRAction
p3882
(dp3883
g8
I3
sg9
Nsg10
Nsg11
Nsg12
Nsg13
g14
sba(iamr_util.Actions
AMRAction
p3884
(dp3885
g8
I3
sg9
Nsg10
Nsg11
Nsg12
Nsg13
g14
sba(iamr_util.Actions
AMRAction
p3886
(dp3887
g8
I0
sg9
Nsg10
Nsg11
S'district'
p3888
sg12
S'd3'
p3889
sg13
g31
sba(iamr_util.Actions
AMRAction
p3890
(dp3891
g8
I3
sg9
Nsg10
Nsg11
Nsg12
Nsg13
g14
sba(iamr_util.Actions
AMRAction
p3892
(dp3893
g8
I3
sg9
Nsg10
Nsg11
Nsg12
Nsg13
g14
sba(iamr_util.Actions
AMRAction
p3894
(dp3895
g8
I0
sg9
Nsg10
Nsg11
S'province'
p3896
sg12
g183
sg13
g31
sba(iamr_util.Actions
AMRAction
p3897
(dp3898
g8
I2
sg9
Nsg10
Nsg11
S'location'
p3899
sg12
Nsg13
g107
sba(iamr_util.Actions
AMRAction
p3900
(dp3901
g8
I2
sg9
Nsg10
Nsg11
S'location'
p3902
sg12
Nsg13
g107
sba(iamr_util.Actions
AMRAction
p3903
(dp3904
g8
I3
sg9
Nsg10
Nsg11
Nsg12
Nsg13
g14
sba(iamr_util.Actions
AMRAction
p3905
(dp3906
g8
I0
sg9
Nsg10
Nsg11
S'date-entity'
p3907
sg12
g266
sg13
g31
sba(iamr_util.Actions
AMRAction
p3908
(dp3909
g8
I2
sg9
Nsg10
Nsg11
S'time'
p3910
sg12
Nsg13
g107
sba(iamr_util.Actions
AMRAction
p3911
(dp3912
g8
I2
sg9
Nsg10
Nsg11
S'time'
p3913
sg12
Nsg13
g107
sba(iamr_util.Actions
AMRAction
p3914
(dp3915
g8
I2
sg9
Nsg10
Nsg11
S'ARG1'
p3916
sg12
Nsg13
g107
sba(iamr_util.Actions
AMRAction
p3917
(dp3918
g8
I3
sg9
Nsg10
Nsg11
Nsg12
Nsg13
g14
sbaS'(s / state-01~e.10\n      :ARG0 (m3 / military\n            :poss~e.5 (m / military))\n      :ARG1~e.11 (p2 / patrol-01~e.21\n            :ARG0 (s2 / soldier~e.17\n                  :mod (COREF_m_0 / military~e.13,14,15,16))\n            :mod (r / routine~e.20)\n            :time~e.22 (d2 / detonate-01~e.25\n                  :ARG1 (b / bomb~e.24)\n                  :location~e.26 (d3 / district~e.29\n                        :location~e.30 (p / province~e.32))\n                  :time~e.33 (d / date-entity~e.34 :day~e.34 26~e.34 :month~e.34 2~e.34 :year~e.34 2008~e.34))))'
p3919
(dp3920
(lp3921
(lp3922
(dp3923
g266
(iamr_util.Node
Node
p3924
(dp3925
g297
Nsg298
(lp3926
((iamr_util.Node
Node
p3927
(dp3928
g297
g1
(g302
g138
g3039
tp3929
Rp3930
sg298
(lp3931
sg11
NsbS'month'
p3932
tp3933
a((iamr_util.Node
Node
p3934
(dp3935
g297
g1
(g302
g138
S'26'
p3936
tp3937
Rp3938
sg298
(lp3939
sg11
NsbS'day'
p3940
tp3941
a((iamr_util.Node
Node
p3942
(dp3943
g297
g1
(g302
g138
S'2008'
p3944
tp3945
Rp3946
sg298
(lp3947
sg11
NsbS'year'
p3948
tp3949
asg11
g325
sbsI1
tp3950
tp3951
Rp3952
ag1
(g2
g3
(S'The date-entity vote will move forward arms trade treaty discussions toward the specifics of the possible language of the arms trade treaty .'
p3953
(lp3954
(iamr_util.Actions
AMRAction
p3955
(dp3956
g8
I3
sg9
Nsg10
Nsg11
Nsg12
Nsg13
g14
sba(iamr_util.Actions
AMRAction
p3957
(dp3958
g8
I0
sg9
Nsg10
Nsg11
S'date-entity'
p3959
sg12
g266
sg13
g31
sba(iamr_util.Actions
AMRAction
p3960
(dp3961
g8
I0
sg9
Nsg10
Nsg11
S'vote-01'
p3962
sg12
g853
sg13
g31
sba(iamr_util.Actions
AMRAction
p3963
(dp3964
g8
I1
sg9
Nsg10
Nsg11
S'time'
p3965
sg12
Nsg13
g83
sba(iamr_util.Actions
AMRAction
p3966
(dp3967
g8
I3
sg9
Nsg10
Nsg11
Nsg12
Nsg13
g14
sba(iamr_util.Actions
AMRAction
p3968
(dp3969
g8
I3
sg9
Nsg10
Nsg11
Nsg12
Nsg13
g14
sba(iamr_util.Actions
AMRAction
p3970
(dp3971
g8
I0
sg9
Nsg10
Nsg11
S'forward-01'
p3972
sg12
g1808
sg13
g31
sba(iamr_util.Actions
AMRAction
p3973
(dp3974
g8
I1
sg9
Nsg10
Nsg11
S'ARG0'
p3975
sg12
Nsg13
g83
sba(iamr_util.Actions
AMRAction
p3976
(dp3977
g8
I0
sg9
Nsg10
Nsg11
S'arm'
p3978
sg12
g67
sg13
g31
sba(iamr_util.Actions
AMRAction
p3979
(dp3980
g8
I0
sg9
Nsg10
Nsg11
S'trade-01'
p3981
sg12
S't2'
p3982
sg13
g31
sba(iamr_util.Actions
AMRAction
p3983
(dp3984
g8
I1
sg9
Nsg10
Nsg11
S'ARG1'
p3985
sg12
Nsg13
g83
sba(iamr_util.Actions
AMRAction
p3986
(dp3987
g8
I0
sg9
Nsg10
Nsg11
S'treaty'
p3988
sg12
g93
sg13
g31
sba(iamr_util.Actions
AMRAction
p3989
(dp3990
g8
I1
sg9
Nsg10
Nsg11
S'topic'
p3991
sg12
Nsg13
g83
sba(iamr_util.Actions
AMRAction
p3992
(dp3993
g8
I0
sg9
Nsg10
Nsg11
S'discuss-01'
p3994
sg12
S'd2'
p3995
sg13
g31
sba(iamr_util.Actions
AMRAction
p3996
(dp3997
g8
I1
sg9
Nsg10
Nsg11
S'ARG1'
p3998
sg12
Nsg13
g83
sba(iamr_util.Actions
AMRAction
p3999
(dp4000
g8
I2
sg9
Nsg10
Nsg11
S'ARG1'
p4001
sg12
Nsg13
g107
sba(iamr_util.Actions
AMRAction
p4002
(dp4003
g8
I3
sg9
Nsg10
Nsg11
Nsg12
Nsg13
g14
sba(iamr_util.Actions
AMRAction
p4004
(dp4005
g8
I3
sg9
Nsg10
Nsg11
Nsg12
Nsg13
g14
sba(iamr_util.Actions
AMRAction
p4006
(dp4007
g8
I0
sg9
Nsg10
Nsg11
S'specific-02'
p4008
sg12
g179
sg13
g31
sba(iamr_util.Actions
AMRAction
p4009
(dp4010
g8
I3
sg9
Nsg10
Nsg11
Nsg12
Nsg13
g14
sba(iamr_util.Actions
AMRAction
p4011
(dp4012
g8
I3
sg9
Nsg10
Nsg11
Nsg12
Nsg13
g14
sba(iamr_util.Actions
AMRAction
p4013
(dp4014
g8
I0
sg9
Nsg10
Nsg11
S'possible-01'
p4015
sg12
g183
sg13
g31
sba(iamr_util.Actions
AMRAction
p4016
(dp4017
g8
I0
sg9
Nsg10
Nsg11
S'language'
p4018
sg12
g230
sg13
g31
sba(iamr_util.Actions
AMRAction
p4019
(dp4020
g8
I1
sg9
Nsg10
Nsg11
S'ARG1-of'
p4021
sg12
Nsg13
g83
sba(iamr_util.Actions
AMRAction
p4022
(dp4023
g8
I3
sg9
Nsg10
Nsg11
Nsg12
Nsg13
g14
sba(iamr_util.Actions
AMRAction
p4024
(dp4025
g8
I3
sg9
Nsg10
Nsg11
Nsg12
Nsg13
g14
sba(iamr_util.Actions
AMRAction
p4026
(dp4027
g8
I0
sg9
Nsg10
Nsg11
S'treaty'
p4028
sg12
S'COREF_t_0'
p4029
sg13
g31
sba(iamr_util.Actions
AMRAction
p4030
(dp4031
g8
I2
sg9
Nsg10
Nsg11
S'poss'
p4032
sg12
Nsg13
g107
sba(iamr_util.Actions
AMRAction
p4033
(dp4034
g8
I2
sg9
Nsg10
Nsg11
S'ARG1'
p4035
sg12
Nsg13
g107
sba(iamr_util.Actions
AMRAction
p4036
(dp4037
g8
I2
sg9
Nsg10
Nsg11
S'ARG2'
p4038
sg12
Nsg13
g107
sba(iamr_util.Actions
AMRAction
p4039
(dp4040
g8
I3
sg9
Nsg10
Nsg11
Nsg12
Nsg13
g14
sba(iamr_util.Actions
AMRAction
p4041
(dp4042
g8
I3
sg9
Nsg10
Nsg11
Nsg12
Nsg13
g14
sba(iamr_util.Actions
AMRAction
p4043
(dp4044
g8
I3
sg9
Nsg10
Nsg11
Nsg12
Nsg13
g14
sbaS'(f / forward-01~e.5\n      :ARG0 (v / vote-01~e.2\n            :time (d / date-entity~e.1 :day~e.1 31~e.1 :month~e.1 10~e.1 :year~e.1 2008~e.1))\n      :ARG1 (d2 / discuss-01~e.9\n            :ARG1 (t / treaty~e.8\n                  :topic (t2 / trade-01~e.7\n                        :ARG1 (a / arm~e.6))))\n      :ARG2 (s / specific-02~e.12\n            :ARG1~e.13 (l / language~e.16\n                  :ARG1-of (p / possible-01~e.15)\n                  :poss~e.17 (COREF_t_0 / treaty~e.19,20,21))))'
p4045
(dp4046
(lp4047
(lp4048
(dp4049
g266
(iamr_util.Node
Node
p4050
(dp4051
g297
Nsg298
(lp4052
((iamr_util.Node
Node
p4053
(dp4054
g297
g1
(g302
g138
S'10'
p4055
tp4056
Rp4057
sg298
(lp4058
sg11
NsbS'month'
p4059
tp4060
a((iamr_util.Node
Node
p4061
(dp4062
g297
g1
(g302
g138
S'31'
p4063
tp4064
Rp4065
sg298
(lp4066
sg11
NsbS'day'
p4067
tp4068
a((iamr_util.Node
Node
p4069
(dp4070
g297
g1
(g302
g138
S'2008'
p4071
tp4072
Rp4073
sg298
(lp4074
sg11
NsbS'year'
p4075
tp4076
asg11
g325
sbsI1
tp4077
tp4078
Rp4079
ag1
(g2
g3
(S'Kearns stated the global financial crisis shows the results of not having multilateral frameworks in place to deal with international issues .'
p4080
(lp4081
(iamr_util.Actions
AMRAction
p4082
(dp4083
g8
I3
sg9
Nsg10
Nsg11
Nsg12
Nsg13
g14
sba(iamr_util.Actions
AMRAction
p4084
(dp4085
g8
I0
sg9
Nsg10
Nsg11
S'state-01'
p4086
sg12
g179
sg13
g31
sba(iamr_util.Actions
AMRAction
p4087
(dp4088
g8
I3
sg9
Nsg10
Nsg11
Nsg12
Nsg13
g14
sba(iamr_util.Actions
AMRAction
p4089
(dp4090
g8
I0
sg9
Nsg10
Nsg11
S'globe'
p4091
sg12
g2936
sg13
g31
sba(iamr_util.Actions
AMRAction
p4092
(dp4093
g8
I0
sg9
Nsg10
Nsg11
S'financial'
p4094
sg12
g1808
sg13
g31
sba(iamr_util.Actions
AMRAction
p4095
(dp4096
g8
I0
sg9
Nsg10
Nsg11
S'crisis'
p4097
sg12
g249
sg13
g31
sba(iamr_util.Actions
AMRAction
p4098
(dp4099
g8
I1
sg9
Nsg10
Nsg11
S'mod'
p4100
sg12
Nsg13
g83
sba(iamr_util.Actions
AMRAction
p4101
(dp4102
g8
I1
sg9
Nsg10
Nsg11
g4100
sg12
Nsg13
g83
sba(iamr_util.Actions
AMRAction
p4103
(dp4104
g8
I0
sg9
Nsg10
Nsg11
S'show-01'
p4105
sg12
S's2'
p4106
sg13
g31
sba(iamr_util.Actions
AMRAction
p4107
(dp4108
g8
I1
sg9
Nsg10
Nsg11
S'ARG0'
p4109
sg12
Nsg13
g83
sba(iamr_util.Actions
AMRAction
p4110
(dp4111
g8
I3
sg9
Nsg10
Nsg11
Nsg12
Nsg13
g14
sba(iamr_util.Actions
AMRAction
p4112
(dp4113
g8
I0
sg9
Nsg10
Nsg11
S'result-01'
p4114
sg12
g30
sg13
g31
sba(iamr_util.Actions
AMRAction
p4115
(dp4116
g8
I3
sg9
Nsg10
Nsg11
Nsg12
Nsg13
g14
sba(iamr_util.Actions
AMRAction
p4117
(dp4118
g8
I0
sg9
Nsg10
Nsg11
g1
(g137
g138
g139
tp4119
Rp4120
sg12
g4120
sg13
g31
sba(iamr_util.Actions
AMRAction
p4121
(dp4122
g8
I0
sg9
Nsg10
Nsg11
S'have-03'
p4123
sg12
g775
sg13
g31
sba(iamr_util.Actions
AMRAction
p4124
(dp4125
g8
I1
sg9
Nsg10
Nsg11
S'polarity'
p4126
sg12
Nsg13
g83
sba(iamr_util.Actions
AMRAction
p4127
(dp4128
g8
I0
sg9
Nsg10
Nsg11
S'multilateral'
p4129
sg12
g187
sg13
g31
sba(iamr_util.Actions
AMRAction
p4130
(dp4131
g8
I0
sg9
Nsg10
Nsg11
S'framework'
p4132
sg12
S'f2'
p4133
sg13
g31
sba(iamr_util.Actions
AMRAction
p4134
(dp4135
g8
I1
sg9
Nsg10
Nsg11
S'mod'
p4136
sg12
Nsg13
g83
sba(iamr_util.Actions
AMRAction
p4137
(dp4138
g8
I3
sg9
Nsg10
Nsg11
Nsg12
Nsg13
g14
sba(iamr_util.Actions
AMRAction
p4139
(dp4140
g8
I0
sg9
Nsg10
Nsg11
S'place'
p4141
sg12
S'p2'
p4142
sg13
g31
sba(iamr_util.Actions
AMRAction
p4143
(dp4144
g8
I2
sg9
Nsg10
Nsg11
S'prep-in'
p4145
sg12
Nsg13
g107
sba(iamr_util.Actions
AMRAction
p4146
(dp4147
g8
I3
sg9
Nsg10
Nsg11
Nsg12
Nsg13
g14
sba(iamr_util.Actions
AMRAction
p4148
(dp4149
g8
I0
sg9
Nsg10
Nsg11
S'deal-01'
p4150
sg12
g266
sg13
g31
sba(iamr_util.Actions
AMRAction
p4151
(dp4152
g8
I3
sg9
Nsg10
Nsg11
Nsg12
Nsg13
g14
sba(iamr_util.Actions
AMRAction
p4153
(dp4154
g8
I0
sg9
Nsg10
Nsg11
S'international'
p4155
sg12
S'i2'
p4156
sg13
g31
sba(iamr_util.Actions
AMRAction
p4157
(dp4158
g8
I0
sg9
Nsg10
Nsg11
S'issue-02'
p4159
sg12
g75
sg13
g31
sba(iamr_util.Actions
AMRAction
p4160
(dp4161
g8
I1
sg9
Nsg10
Nsg11
S'ARG1'
p4162
sg12
Nsg13
g83
sba(iamr_util.Actions
AMRAction
p4163
(dp4164
g8
I2
sg9
Nsg10
Nsg11
S'ARG2'
p4165
sg12
Nsg13
g107
sba(iamr_util.Actions
AMRAction
p4166
(dp4167
g8
I2
sg9
Nsg10
Nsg11
S'purpose'
p4168
sg12
Nsg13
g107
sba(iamr_util.Actions
AMRAction
p4169
(dp4170
g8
I2
sg9
Nsg10
Nsg11
S'ARG1'
p4171
sg12
Nsg13
g107
sba(iamr_util.Actions
AMRAction
p4172
(dp4173
g8
I2
sg9
Nsg10
Nsg11
S'ARG2'
p4174
sg12
Nsg13
g107
sba(iamr_util.Actions
AMRAction
p4175
(dp4176
g8
I2
sg9
Nsg10
Nsg11
S'ARG1'
p4177
sg12
Nsg13
g107
sba(iamr_util.Actions
AMRAction
p4178
(dp4179
g8
I2
sg9
Nsg10
Nsg11
S'ARG1'
p4180
sg12
Nsg13
g107
sba(iamr_util.Actions
AMRAction
p4181
(dp4182
g8
I3
sg9
Nsg10
Nsg11
Nsg12
Nsg13
g14
sbaS'(s / state-01~e.1\n      :ARG0 (p / person)\n      :ARG1 (s2 / show-01~e.6\n            :ARG0 (c / crisis~e.5\n                  :mod (f / financial~e.4)\n                  :mod (g / globe~e.3))\n            :ARG1 (r / result-01~e.8\n                  :ARG2~e.9 (h / have-03~e.11 :polarity~e.10 -~e.10\n                        :ARG1 (f2 / framework~e.13\n                              :mod (m / multilateral~e.12)\n                              :prep-in~e.14 (p2 / place~e.15)\n                              :purpose (d / deal-01~e.17\n                                    :ARG2~e.18 (i / issue-02~e.20\n                                          :ARG1 (i2 / international~e.19))))))))'
p4183
(dp4184
(lp4185
(lp4186
(dp4187
I1
tp4188
tp4189
Rp4190
ag1
(g2
g3
(S'The United States has control of the key technology in building the submarines .'
p4191
(lp4192
(iamr_util.Actions
AMRAction
p4193
(dp4194
g8
I3
sg9
Nsg10
Nsg11
Nsg12
Nsg13
g14
sba(iamr_util.Actions
AMRAction
p4195
(dp4196
g8
I3
sg9
Nsg10
Nsg11
Nsg12
Nsg13
g14
sba(iamr_util.Actions
AMRAction
p4197
(dp4198
g8
I3
sg9
Nsg10
Nsg11
Nsg12
Nsg13
g14
sba(iamr_util.Actions
AMRAction
p4199
(dp4200
g8
I0
sg9
Nsg10
Nsg11
S'control-01'
p4201
sg12
S'c2'
p4202
sg13
g31
sba(iamr_util.Actions
AMRAction
p4203
(dp4204
g8
I3
sg9
Nsg10
Nsg11
Nsg12
Nsg13
g14
sba(iamr_util.Actions
AMRAction
p4205
(dp4206
g8
I3
sg9
Nsg10
Nsg11
Nsg12
Nsg13
g14
sba(iamr_util.Actions
AMRAction
p4207
(dp4208
g8
I3
sg9
Nsg10
Nsg11
Nsg12
Nsg13
g14
sba(iamr_util.Actions
AMRAction
p4209
(dp4210
g8
I0
sg9
Nsg10
Nsg11
S'key-02'
p4211
sg12
g2867
sg13
g31
sba(iamr_util.Actions
AMRAction
p4212
(dp4213
g8
I0
sg9
Nsg10
Nsg11
S'technology'
p4214
sg12
g93
sg13
g31
sba(iamr_util.Actions
AMRAction
p4215
(dp4216
g8
I1
sg9
Nsg10
Nsg11
S'ARG1-of'
p4217
sg12
Nsg13
g83
sba(iamr_util.Actions
AMRAction
p4218
(dp4219
g8
I3
sg9
Nsg10
Nsg11
Nsg12
Nsg13
g14
sba(iamr_util.Actions
AMRAction
p4220
(dp4221
g8
I0
sg9
Nsg10
Nsg11
S'build-01'
p4222
sg12
g151
sg13
g31
sba(iamr_util.Actions
AMRAction
p4223
(dp4224
g8
I3
sg9
Nsg10
Nsg11
Nsg12
Nsg13
g14
sba(iamr_util.Actions
AMRAction
p4225
(dp4226
g8
I0
sg9
Nsg10
Nsg11
S'submarine'
p4227
sg12
g179
sg13
g31
sba(iamr_util.Actions
AMRAction
p4228
(dp4229
g8
I2
sg9
Nsg10
Nsg11
S'ARG1'
p4230
sg12
Nsg13
g107
sba(iamr_util.Actions
AMRAction
p4231
(dp4232
g8
I2
sg9
Nsg10
Nsg11
S'ARG2-of'
p4233
sg12
Nsg13
g107
sba(iamr_util.Actions
AMRAction
p4234
(dp4235
g8
I2
sg9
Nsg10
Nsg11
S'ARG1'
p4236
sg12
Nsg13
g107
sba(iamr_util.Actions
AMRAction
p4237
(dp4238
g8
I3
sg9
Nsg10
Nsg11
Nsg12
Nsg13
g14
sbaS'(h / have-03~e.3\n      :ARG0 (c / country)\n      :ARG1~e.3 (c2 / control-01~e.3,4\n            :ARG0 (COREF_c_0 / country)\n            :ARG1~e.5 (t / technology~e.8\n                  :ARG1-of (k / key-02~e.7)\n                  :ARG2-of~e.9 (b / build-01~e.10\n                        :ARG1 (s / submarine~e.12)))))'
p4239
(dp4240
(lp4241
(lp4242
(dp4243
I1
tp4244
tp4245
Rp4246
ag1
(g2
g3
(S'China made the response about the test quickly after the relevant parties expressed their concerns .'
p4247
(lp4248
(iamr_util.Actions
AMRAction
p4249
(dp4250
g8
I3
sg9
Nsg10
Nsg11
Nsg12
Nsg13
g14
sba(iamr_util.Actions
AMRAction
p4251
(dp4252
g8
I0
sg9
Nsg10
Nsg11
S'respond-01'
p4253
sg12
g30
sg13
g31
sba(iamr_util.Actions
AMRAction
p4254
(dp4255
g8
I3
sg9
Nsg10
Nsg11
Nsg12
Nsg13
g14
sba(iamr_util.Actions
AMRAction
p4256
(dp4257
g8
I3
sg9
Nsg10
Nsg11
Nsg12
Nsg13
g14
sba(iamr_util.Actions
AMRAction
p4258
(dp4259
g8
I3
sg9
Nsg10
Nsg11
Nsg12
Nsg13
g14
sba(iamr_util.Actions
AMRAction
p4260
(dp4261
g8
I3
sg9
Nsg10
Nsg11
Nsg12
Nsg13
g14
sba(iamr_util.Actions
AMRAction
p4262
(dp4263
g8
I0
sg9
Nsg10
Nsg11
S'test'
p4264
sg12
g93
sg13
g31
sba(iamr_util.Actions
AMRAction
p4265
(dp4266
g8
I2
sg9
Nsg10
Nsg11
S'ARG1'
p4267
sg12
Nsg13
g107
sba(iamr_util.Actions
AMRAction
p4268
(dp4269
g8
I0
sg9
Nsg10
Nsg11
S'quick-02'
p4270
sg12
S'q'
p4271
sg13
g31
sba(iamr_util.Actions
AMRAction
p4272
(dp4273
g8
I2
sg9
Nsg10
Nsg11
S'ARG1-of'
p4274
sg12
Nsg13
g107
sba(iamr_util.Actions
AMRAction
p4275
(dp4276
g8
I0
sg9
Nsg10
Nsg11
S'after'
p4277
sg12
g67
sg13
g31
sba(iamr_util.Actions
AMRAction
p4278
(dp4279
g8
I3
sg9
Nsg10
Nsg11
Nsg12
Nsg13
g14
sba(iamr_util.Actions
AMRAction
p4280
(dp4281
g8
I0
sg9
Nsg10
Nsg11
S'relevance'
p4282
sg12
S'r2'
p4283
sg13
g31
sba(iamr_util.Actions
AMRAction
p4284
(dp4285
g8
I0
sg9
Nsg10
Nsg11
S'party'
p4286
sg12
g183
sg13
g31
sba(iamr_util.Actions
AMRAction
p4287
(dp4288
g8
I1
sg9
Nsg10
Nsg11
S'mod'
p4289
sg12
Nsg13
g83
sba(iamr_util.Actions
AMRAction
p4290
(dp4291
g8
I0
sg9
Nsg10
Nsg11
S'express-01'
p4292
sg12
g600
sg13
g31
sba(iamr_util.Actions
AMRAction
p4293
(dp4294
g8
I1
sg9
Nsg10
Nsg11
S'ARG0'
p4295
sg12
Nsg13
g83
sba(iamr_util.Actions
AMRAction
p4296
(dp4297
g8
I0
sg9
Nsg10
Nsg11
S'party'
p4298
sg12
S'COREF_p_0'
p4299
sg13
g31
sba(iamr_util.Actions
AMRAction
p4300
(dp4301
g8
I0
sg9
Nsg10
Nsg11
S'concern-01'
p4302
sg12
S'c2'
p4303
sg13
g31
sba(iamr_util.Actions
AMRAction
p4304
(dp4305
g8
I1
sg9
Nsg10
Nsg11
S'ARG1'
p4306
sg12
Nsg13
g83
sba(iamr_util.Actions
AMRAction
p4307
(dp4308
g8
I2
sg9
Nsg10
Nsg11
S'ARG1'
p4309
sg12
Nsg13
g107
sba(iamr_util.Actions
AMRAction
p4310
(dp4311
g8
I2
sg9
Nsg10
Nsg11
S'op1'
p4312
sg12
Nsg13
g107
sba(iamr_util.Actions
AMRAction
p4313
(dp4314
g8
I2
sg9
Nsg10
Nsg11
S'mod'
p4315
sg12
Nsg13
g107
sba(iamr_util.Actions
AMRAction
p4316
(dp4317
g8
I3
sg9
Nsg10
Nsg11
Nsg12
Nsg13
g14
sbaS'(r / respond-01~e.1,3\n      :ARG0 (c / country)\n      :ARG1~e.4 (t / test~e.6)\n      :ARG1-of (q / quick-02~e.7)\n      :mod (a / after~e.8\n            :op1 (e / express-01~e.12\n                  :ARG0 (p / party~e.11\n                        :mod (r2 / relevance~e.10))\n                  :ARG1 (c2 / concern-01~e.14\n                        :ARG1~e.13 (COREF_p_0 / party~e.13)))))'
p4318
(dp4319
(lp4320
(lp4321
(dp4322
I1
tp4323
tp4324
Rp4325
ag1
(g2
g3
(S'Alim said the men do not want any kind of organized reform movement .'
p4326
(lp4327
(iamr_util.Actions
AMRAction
p4328
(dp4329
g8
I3
sg9
Nsg10
Nsg11
Nsg12
Nsg13
g14
sba(iamr_util.Actions
AMRAction
p4330
(dp4331
g8
I0
sg9
Nsg10
Nsg11
S'say-01'
p4332
sg12
g179
sg13
g31
sba(iamr_util.Actions
AMRAction
p4333
(dp4334
g8
I3
sg9
Nsg10
Nsg11
Nsg12
Nsg13
g14
sba(iamr_util.Actions
AMRAction
p4335
(dp4336
g8
I0
sg9
Nsg10
Nsg11
S'man'
p4337
sg12
g187
sg13
g31
sba(iamr_util.Actions
AMRAction
p4338
(dp4339
g8
I3
sg9
Nsg10
Nsg11
Nsg12
Nsg13
g14
sba(iamr_util.Actions
AMRAction
p4340
(dp4341
g8
I0
sg9
Nsg10
Nsg11
g1
(g137
g138
g139
tp4342
Rp4343
sg12
g4343
sg13
g31
sba(iamr_util.Actions
AMRAction
p4344
(dp4345
g8
I0
sg9
Nsg10
Nsg11
S'want-01'
p4346
sg12
g1444
sg13
g31
sba(iamr_util.Actions
AMRAction
p4347
(dp4348
g8
I1
sg9
Nsg10
Nsg11
S'polarity'
p4349
sg12
Nsg13
g83
sba(iamr_util.Actions
AMRAction
p4350
(dp4351
g8
I1
sg9
Nsg10
Nsg11
S'ARG0'
p4352
sg12
Nsg13
g83
sba(iamr_util.Actions
AMRAction
p4353
(dp4354
g8
I0
sg9
Nsg10
Nsg11
S'any'
p4355
sg12
g67
sg13
g31
sba(iamr_util.Actions
AMRAction
p4356
(dp4357
g8
I0
sg9
Nsg10
Nsg11
S'kind'
p4358
sg12
g2867
sg13
g31
sba(iamr_util.Actions
AMRAction
p4359
(dp4360
g8
I1
sg9
Nsg10
Nsg11
S'mod'
p4361
sg12
Nsg13
g83
sba(iamr_util.Actions
AMRAction
p4362
(dp4363
g8
I3
sg9
Nsg10
Nsg11
Nsg12
Nsg13
g14
sba(iamr_util.Actions
AMRAction
p4364
(dp4365
g8
I0
sg9
Nsg10
Nsg11
S'organize-01'
p4366
sg12
g504
sg13
g31
sba(iamr_util.Actions
AMRAction
p4367
(dp4368
g8
I0
sg9
Nsg10
Nsg11
S'reform-01'
p4369
sg12
g30
sg13
g31
sba(iamr_util.Actions
AMRAction
p4370
(dp4371
g8
I0
sg9
Nsg10
Nsg11
S'movement-07'
p4372
sg12
S'm2'
p4373
sg13
g31
sba(iamr_util.Actions
AMRAction
p4374
(dp4375
g8
I1
sg9
Nsg10
Nsg11
S'ARG1'
p4376
sg12
Nsg13
g83
sba(iamr_util.Actions
AMRAction
p4377
(dp4378
g8
I1
sg9
Nsg10
Nsg11
S'ARG1-of'
p4379
sg12
Nsg13
g83
sba(iamr_util.Actions
AMRAction
p4380
(dp4381
g8
I1
sg9
Nsg10
Nsg11
S'mod'
p4382
sg12
Nsg13
g83
sba(iamr_util.Actions
AMRAction
p4383
(dp4384
g8
I2
sg9
Nsg10
Nsg11
S'ARG1'
p4385
sg12
Nsg13
g107
sba(iamr_util.Actions
AMRAction
p4386
(dp4387
g8
I2
sg9
Nsg10
Nsg11
S'ARG1'
p4388
sg12
Nsg13
g107
sba(iamr_util.Actions
AMRAction
p4389
(dp4390
g8
I3
sg9
Nsg10
Nsg11
Nsg12
Nsg13
g14
sbaS'(s / say-01~e.1\n      :ARG0 (p2 / person)\n      :ARG1 (w / want-01~e.6 :polarity~e.5 -~e.5\n            :ARG0 (m / man~e.3)\n            :ARG1 (m2 / movement-07~e.12\n                  :ARG1 (r / reform-01~e.11)\n                  :ARG1-of (o / organize-01~e.10)\n                  :mod~e.9 (k / kind~e.8\n                        :mod (a / any~e.7)))))'
p4391
(dp4392
(lp4393
(lp4394
(dp4395
I1
tp4396
tp4397
Rp4398
ag1
(g2
g3
(S'The Consultative Shura Council recently announced it was considering laws permitting the setting up of civic rights groups which are currently not allowed in the Kingdom .'
p4399
(lp4400
(iamr_util.Actions
AMRAction
p4401
(dp4402
g8
I3
sg9
Nsg10
Nsg11
Nsg12
Nsg13
g14
sba(iamr_util.Actions
AMRAction
p4403
(dp4404
g8
I3
sg9
Nsg10
Nsg11
Nsg12
Nsg13
g14
sba(iamr_util.Actions
AMRAction
p4405
(dp4406
g8
I3
sg9
Nsg10
Nsg11
Nsg12
Nsg13
g14
sba(iamr_util.Actions
AMRAction
p4407
(dp4408
g8
I3
sg9
Nsg10
Nsg11
Nsg12
Nsg13
g14
sba(iamr_util.Actions
AMRAction
p4409
(dp4410
g8
I0
sg9
Nsg10
Nsg11
S'recent'
p4411
sg12
g30
sg13
g31
sba(iamr_util.Actions
AMRAction
p4412
(dp4413
g8
I0
sg9
Nsg10
Nsg11
S'announce-01'
p4414
sg12
g67
sg13
g31
sba(iamr_util.Actions
AMRAction
p4415
(dp4416
g8
I1
sg9
Nsg10
Nsg11
S'time'
p4417
sg12
Nsg13
g83
sba(iamr_util.Actions
AMRAction
p4418
(dp4419
g8
I0
sg9
Nsg10
Nsg11
S'government-organization'
p4420
sg12
S'COREF_g2_0'
p4421
sg13
g31
sba(iamr_util.Actions
AMRAction
p4422
(dp4423
g8
I3
sg9
Nsg10
Nsg11
Nsg12
Nsg13
g14
sba(iamr_util.Actions
AMRAction
p4424
(dp4425
g8
I0
sg9
Nsg10
Nsg11
S'consider-02'
p4426
sg12
g249
sg13
g31
sba(iamr_util.Actions
AMRAction
p4427
(dp4428
g8
I1
sg9
Nsg10
Nsg11
S'ARG0'
p4429
sg12
Nsg13
g83
sba(iamr_util.Actions
AMRAction
p4430
(dp4431
g8
I0
sg9
Nsg10
Nsg11
S'law'
p4432
sg12
g230
sg13
g31
sba(iamr_util.Actions
AMRAction
p4433
(dp4434
g8
I0
sg9
Nsg10
Nsg11
S'permit-01'
p4435
sg12
g183
sg13
g31
sba(iamr_util.Actions
AMRAction
p4436
(dp4437
g8
I3
sg9
Nsg10
Nsg11
Nsg12
Nsg13
g14
sba(iamr_util.Actions
AMRAction
p4438
(dp4439
g8
I0
sg9
Nsg10
Nsg11
S'set-up-03'
p4440
sg12
g179
sg13
g31
sba(iamr_util.Actions
AMRAction
p4441
(dp4442
g8
I3
sg9
Nsg10
Nsg11
Nsg12
Nsg13
g14
sba(iamr_util.Actions
AMRAction
p4443
(dp4444
g8
I3
sg9
Nsg10
Nsg11
Nsg12
Nsg13
g14
sba(iamr_util.Actions
AMRAction
p4445
(dp4446
g8
I0
sg9
Nsg10
Nsg11
S'civic'
p4447
sg12
S'c2'
p4448
sg13
g31
sba(iamr_util.Actions
AMRAction
p4449
(dp4450
g8
I0
sg9
Nsg10
Nsg11
S'right'
p4451
sg12
S'r2'
p4452
sg13
g31
sba(iamr_util.Actions
AMRAction
p4453
(dp4454
g8
I1
sg9
Nsg10
Nsg11
S'mod'
p4455
sg12
Nsg13
g83
sba(iamr_util.Actions
AMRAction
p4456
(dp4457
g8
I0
sg9
Nsg10
Nsg11
S'group'
p4458
sg12
S'g3'
p4459
sg13
g31
sba(iamr_util.Actions
AMRAction
p4460
(dp4461
g8
I1
sg9
Nsg10
Nsg11
S'mod'
p4462
sg12
Nsg13
g83
sba(iamr_util.Actions
AMRAction
p4463
(dp4464
g8
I3
sg9
Nsg10
Nsg11
Nsg12
Nsg13
g14
sba(iamr_util.Actions
AMRAction
p4465
(dp4466
g8
I3
sg9
Nsg10
Nsg11
Nsg12
Nsg13
g14
sba(iamr_util.Actions
AMRAction
p4467
(dp4468
g8
I0
sg9
Nsg10
Nsg11
S'current'
p4469
sg12
S'c4'
p4470
sg13
g31
sba(iamr_util.Actions
AMRAction
p4471
(dp4472
g8
I0
sg9
Nsg10
Nsg11
g1
(g137
g138
g139
tp4473
Rp4474
sg12
g4474
sg13
g31
sba(iamr_util.Actions
AMRAction
p4475
(dp4476
g8
I0
sg9
Nsg10
Nsg11
S'allow-01'
p4477
sg12
S'a2'
p4478
sg13
g31
sba(iamr_util.Actions
AMRAction
p4479
(dp4480
g8
I1
sg9
Nsg10
Nsg11
S'polarity'
p4481
sg12
Nsg13
g83
sba(iamr_util.Actions
AMRAction
p4482
(dp4483
g8
I1
sg9
Nsg10
Nsg11
S'time'
p4484
sg12
Nsg13
g83
sba(iamr_util.Actions
AMRAction
p4485
(dp4486
g8
I3
sg9
Nsg10
Nsg11
Nsg12
Nsg13
g14
sba(iamr_util.Actions
AMRAction
p4487
(dp4488
g8
I3
sg9
Nsg10
Nsg11
Nsg12
Nsg13
g14
sba(iamr_util.Actions
AMRAction
p4489
(dp4490
g8
I0
sg9
Nsg10
Nsg11
S'kingdom'
p4491
sg12
g2867
sg13
g31
sba(iamr_util.Actions
AMRAction
p4492
(dp4493
g8
I2
sg9
Nsg10
Nsg11
S'location'
p4494
sg12
Nsg13
g107
sba(iamr_util.Actions
AMRAction
p4495
(dp4496
g8
I2
sg9
Nsg10
Nsg11
S'ARG1-of'
p4497
sg12
Nsg13
g107
sba(iamr_util.Actions
AMRAction
p4498
(dp4499
g8
I2
sg9
Nsg10
Nsg11
S'ARG1'
p4500
sg12
Nsg13
g107
sba(iamr_util.Actions
AMRAction
p4501
(dp4502
g8
I2
sg9
Nsg10
Nsg11
S'ARG1'
p4503
sg12
Nsg13
g107
sba(iamr_util.Actions
AMRAction
p4504
(dp4505
g8
I2
sg9
Nsg10
Nsg11
S'ARG0-of'
p4506
sg12
Nsg13
g107
sba(iamr_util.Actions
AMRAction
p4507
(dp4508
g8
I2
sg9
Nsg10
Nsg11
S'ARG1'
p4509
sg12
Nsg13
g107
sba(iamr_util.Actions
AMRAction
p4510
(dp4511
g8
I2
sg9
Nsg10
Nsg11
S'ARG1'
p4512
sg12
Nsg13
g107
sba(iamr_util.Actions
AMRAction
p4513
(dp4514
g8
I3
sg9
Nsg10
Nsg11
Nsg12
Nsg13
g14
sbaS'(a / announce-01~e.5\n      :ARG0 (g2 / government-organization)\n      :ARG1 (c / consider-02~e.8\n            :ARG0 (COREF_g2_0 / government-organization~e.6)\n            :ARG1 (l / law~e.9\n                  :ARG0-of (p / permit-01~e.10\n                        :ARG1 (s / set-up-03~e.12,13\n                              :ARG1~e.14 (g3 / group~e.17\n                                    :mod (r2 / right~e.16\n                                          :mod (c2 / civic~e.15))\n                                    :ARG1-of (a2 / allow-01~e.22 :polarity~e.21 -~e.21\n                                          :location~e.23 (k / kingdom~e.25)\n                                          :time (c4 / current~e.20)))))))\n      :time (r / recent~e.4))'
p4515
(dp4516
(lp4517
(lp4518
(dp4519
I1
tp4520
tp4521
Rp4522
ag1
(g2
g3
(S'The killings show the scope of the violence and the tactics of psychological warfare behind it .'
p4523
(lp4524
(iamr_util.Actions
AMRAction
p4525
(dp4526
g8
I3
sg9
Nsg10
Nsg11
Nsg12
Nsg13
g14
sba(iamr_util.Actions
AMRAction
p4527
(dp4528
g8
I0
sg9
Nsg10
Nsg11
S'kill-01'
p4529
sg12
g2867
sg13
g31
sba(iamr_util.Actions
AMRAction
p4530
(dp4531
g8
I0
sg9
Nsg10
Nsg11
S'show-01'
p4532
sg12
g179
sg13
g31
sba(iamr_util.Actions
AMRAction
p4533
(dp4534
g8
I1
sg9
Nsg10
Nsg11
S'ARG0'
p4535
sg12
Nsg13
g83
sba(iamr_util.Actions
AMRAction
p4536
(dp4537
g8
I3
sg9
Nsg10
Nsg11
Nsg12
Nsg13
g14
sba(iamr_util.Actions
AMRAction
p4538
(dp4539
g8
I0
sg9
Nsg10
Nsg11
S'scope'
p4540
sg12
S's2'
p4541
sg13
g31
sba(iamr_util.Actions
AMRAction
p4542
(dp4543
g8
I3
sg9
Nsg10
Nsg11
Nsg12
Nsg13
g14
sba(iamr_util.Actions
AMRAction
p4544
(dp4545
g8
I3
sg9
Nsg10
Nsg11
Nsg12
Nsg13
g14
sba(iamr_util.Actions
AMRAction
p4546
(dp4547
g8
I0
sg9
Nsg10
Nsg11
S'violence'
p4548
sg12
g853
sg13
g31
sba(iamr_util.Actions
AMRAction
p4549
(dp4550
g8
I2
sg9
Nsg10
Nsg11
S'poss'
p4551
sg12
Nsg13
g107
sba(iamr_util.Actions
AMRAction
p4552
(dp4553
g8
I0
sg9
Nsg10
Nsg11
S'and'
p4554
sg12
g67
sg13
g31
sba(iamr_util.Actions
AMRAction
p4555
(dp4556
g8
I1
sg9
Nsg10
Nsg11
S'op1'
p4557
sg12
Nsg13
g83
sba(iamr_util.Actions
AMRAction
p4558
(dp4559
g8
I3
sg9
Nsg10
Nsg11
Nsg12
Nsg13
g14
sba(iamr_util.Actions
AMRAction
p4560
(dp4561
g8
I0
sg9
Nsg10
Nsg11
S'tactic'
p4562
sg12
g93
sg13
g31
sba(iamr_util.Actions
AMRAction
p4563
(dp4564
g8
I3
sg9
Nsg10
Nsg11
Nsg12
Nsg13
g14
sba(iamr_util.Actions
AMRAction
p4565
(dp4566
g8
I0
sg9
Nsg10
Nsg11
S'psychology'
p4567
sg12
g183
sg13
g31
sba(iamr_util.Actions
AMRAction
p4568
(dp4569
g8
I0
sg9
Nsg10
Nsg11
S'warfare'
p4570
sg12
g1444
sg13
g31
sba(iamr_util.Actions
AMRAction
p4571
(dp4572
g8
I1
sg9
Nsg10
Nsg11
S'mod'
p4573
sg12
Nsg13
g83
sba(iamr_util.Actions
AMRAction
p4574
(dp4575
g8
I2
sg9
Nsg10
Nsg11
S'mod'
p4576
sg12
Nsg13
g107
sba(iamr_util.Actions
AMRAction
p4577
(dp4578
g8
I0
sg9
Nsg10
Nsg11
S'behind'
p4579
sg12
g151
sg13
g31
sba(iamr_util.Actions
AMRAction
p4580
(dp4581
g8
I0
sg9
Nsg10
Nsg11
S'violence'
p4582
sg12
S'COREF_v_0'
p4583
sg13
g31
sba(iamr_util.Actions
AMRAction
p4584
(dp4585
g8
I2
sg9
Nsg10
Nsg11
S'op1'
p4586
sg12
Nsg13
g107
sba(iamr_util.Actions
AMRAction
p4587
(dp4588
g8
I2
sg9
Nsg10
Nsg11
g4576
sg12
Nsg13
g107
sba(iamr_util.Actions
AMRAction
p4589
(dp4590
g8
I2
sg9
Nsg10
Nsg11
S'op2'
p4591
sg12
Nsg13
g107
sba(iamr_util.Actions
AMRAction
p4592
(dp4593
g8
I2
sg9
Nsg10
Nsg11
S'ARG1'
p4594
sg12
Nsg13
g107
sba(iamr_util.Actions
AMRAction
p4595
(dp4596
g8
I3
sg9
Nsg10
Nsg11
Nsg12
Nsg13
g14
sbaS'(s / show-01~e.2\n      :ARG0 (k / kill-01~e.1)\n      :ARG1 (a / and~e.8\n            :op1 (s2 / scope~e.4\n                  :poss~e.5 (v / violence~e.7))\n            :op2 (t / tactic~e.10\n                  :mod~e.11 (w / warfare~e.13\n                        :mod (p / psychology~e.12))\n                  :mod (b / behind~e.14\n                        :op1 (COREF_v_0 / violence~e.15)))))'
p4597
(dp4598
(lp4599
(lp4600
(dp4601
I1
tp4602
tp4603
Rp4604
ag1
(g2
g3
(S'Martinez has not been seen since .'
p4605
(lp4606
(iamr_util.Actions
AMRAction
p4607
(dp4608
g8
I3
sg9
Nsg10
Nsg11
Nsg12
Nsg13
g14
sba(iamr_util.Actions
AMRAction
p4609
(dp4610
g8
I3
sg9
Nsg10
Nsg11
Nsg12
Nsg13
g14
sba(iamr_util.Actions
AMRAction
p4611
(dp4612
g8
I0
sg9
Nsg10
Nsg11
g1
(g137
g138
g139
tp4613
Rp4614
sg12
g4614
sg13
g31
sba(iamr_util.Actions
AMRAction
p4615
(dp4616
g8
I3
sg9
Nsg10
Nsg11
Nsg12
Nsg13
g14
sba(iamr_util.Actions
AMRAction
p4617
(dp4618
g8
I0
sg9
Nsg10
Nsg11
S'see-01'
p4619
sg12
g179
sg13
g31
sba(iamr_util.Actions
AMRAction
p4620
(dp4621
g8
I1
sg9
Nsg10
Nsg11
S'polarity'
p4622
sg12
Nsg13
g83
sba(iamr_util.Actions
AMRAction
p4623
(dp4624
g8
I0
sg9
Nsg10
Nsg11
S'since'
p4625
sg12
S's2'
p4626
sg13
g31
sba(iamr_util.Actions
AMRAction
p4627
(dp4628
g8
I2
sg9
Nsg10
Nsg11
S'time'
p4629
sg12
Nsg13
g107
sba(iamr_util.Actions
AMRAction
p4630
(dp4631
g8
I3
sg9
Nsg10
Nsg11
Nsg12
Nsg13
g14
sbaS'(s / see-01~e.4 :polarity~e.2 -~e.2\n      :ARG1 (p / person)\n      :time (s2 / since~e.5))'
p4632
(dp4633
(lp4634
(lp4635
(dp4636
I1
tp4637
tp4638
Rp4639
ag1
(g2
g3
(S'There are no viruses at the State Scientific Center of applied Microbiology in obolensk .'
p4640
(lp4641
(iamr_util.Actions
AMRAction
p4642
(dp4643
g8
I3
sg9
Nsg10
Nsg11
Nsg12
Nsg13
g14
sba(iamr_util.Actions
AMRAction
p4644
(dp4645
g8
I0
sg9
Nsg10
Nsg11
S'be-located-at-91'
p4646
sg12
g151
sg13
g31
sba(iamr_util.Actions
AMRAction
p4647
(dp4648
g8
I0
sg9
Nsg10
Nsg11
g1
(g137
g138
g139
tp4649
Rp4650
sg12
g4650
sg13
g31
sba(iamr_util.Actions
AMRAction
p4651
(dp4652
g8
I0
sg9
Nsg10
Nsg11
S'virus'
p4653
sg12
g853
sg13
g31
sba(iamr_util.Actions
AMRAction
p4654
(dp4655
g8
I1
sg9
Nsg10
Nsg11
S'polarity'
p4656
sg12
Nsg13
g83
sba(iamr_util.Actions
AMRAction
p4657
(dp4658
g8
I2
sg9
Nsg10
Nsg11
S'ARG1'
p4659
sg12
Nsg13
g107
sba(iamr_util.Actions
AMRAction
p4660
(dp4661
g8
I3
sg9
Nsg10
Nsg11
Nsg12
Nsg13
g14
sba(iamr_util.Actions
AMRAction
p4662
(dp4663
g8
I3
sg9
Nsg10
Nsg11
Nsg12
Nsg13
g14
sba(iamr_util.Actions
AMRAction
p4664
(dp4665
g8
I3
sg9
Nsg10
Nsg11
Nsg12
Nsg13
g14
sba(iamr_util.Actions
AMRAction
p4666
(dp4667
g8
I3
sg9
Nsg10
Nsg11
Nsg12
Nsg13
g14
sba(iamr_util.Actions
AMRAction
p4668
(dp4669
g8
I3
sg9
Nsg10
Nsg11
Nsg12
Nsg13
g14
sba(iamr_util.Actions
AMRAction
p4670
(dp4671
g8
I3
sg9
Nsg10
Nsg11
Nsg12
Nsg13
g14
sba(iamr_util.Actions
AMRAction
p4672
(dp4673
g8
I3
sg9
Nsg10
Nsg11
Nsg12
Nsg13
g14
sba(iamr_util.Actions
AMRAction
p4674
(dp4675
g8
I3
sg9
Nsg10
Nsg11
Nsg12
Nsg13
g14
sba(iamr_util.Actions
AMRAction
p4676
(dp4677
g8
I3
sg9
Nsg10
Nsg11
Nsg12
Nsg13
g14
sba(iamr_util.Actions
AMRAction
p4678
(dp4679
g8
I3
sg9
Nsg10
Nsg11
Nsg12
Nsg13
g14
sba(iamr_util.Actions
AMRAction
p4680
(dp4681
g8
I3
sg9
Nsg10
Nsg11
Nsg12
Nsg13
g14
sbaS'(b / be-located-at-91~e.1,4\n      :ARG1 (v / virus~e.3 :polarity~e.2 -~e.2)\n      :ARG2 (r / research-institute\n            :location (c / city)))'
p4682
(dp4683
(lp4684
(lp4685
(dp4686
I1
tp4687
tp4688
Rp4689
ag1
(g2
g3
(S'In most cases of military installations having their electricity cut off the electricity has been quickly restored .'
p4690
(lp4691
(iamr_util.Actions
AMRAction
p4692
(dp4693
g8
I3
sg9
Nsg10
Nsg11
Nsg12
Nsg13
g14
sba(iamr_util.Actions
AMRAction
p4694
(dp4695
g8
I0
sg9
Nsg10
Nsg11
S'most'
p4696
sg12
S'm3'
p4697
sg13
g31
sba(iamr_util.Actions
AMRAction
p4698
(dp4699
g8
I0
sg9
Nsg10
Nsg11
S'case'
p4700
sg12
S'c3'
p4701
sg13
g31
sba(iamr_util.Actions
AMRAction
p4702
(dp4703
g8
I1
sg9
Nsg10
Nsg11
S'quant'
p4704
sg12
Nsg13
g83
sba(iamr_util.Actions
AMRAction
p4705
(dp4706
g8
I3
sg9
Nsg10
Nsg11
Nsg12
Nsg13
g14
sba(iamr_util.Actions
AMRAction
p4707
(dp4708
g8
I0
sg9
Nsg10
Nsg11
S'military'
p4709
sg12
S'm2'
p4710
sg13
g31
sba(iamr_util.Actions
AMRAction
p4711
(dp4712
g8
I0
sg9
Nsg10
Nsg11
S'installation'
p4713
sg12
g75
sg13
g31
sba(iamr_util.Actions
AMRAction
p4714
(dp4715
g8
I1
sg9
Nsg10
Nsg11
S'mod'
p4716
sg12
Nsg13
g83
sba(iamr_util.Actions
AMRAction
p4717
(dp4718
g8
I3
sg9
Nsg10
Nsg11
Nsg12
Nsg13
g14
sba(iamr_util.Actions
AMRAction
p4719
(dp4720
g8
I3
sg9
Nsg10
Nsg11
Nsg12
Nsg13
g14
sba(iamr_util.Actions
AMRAction
p4721
(dp4722
g8
I0
sg9
Nsg10
Nsg11
S'electricity'
p4723
sg12
g600
sg13
g31
sba(iamr_util.Actions
AMRAction
p4724
(dp4725
g8
I0
sg9
Nsg10
Nsg11
S'cut-off-04'
p4726
sg12
S'c2'
p4727
sg13
g31
sba(iamr_util.Actions
AMRAction
p4728
(dp4729
g8
I1
sg9
Nsg10
Nsg11
S'ARG1'
p4730
sg12
Nsg13
g83
sba(iamr_util.Actions
AMRAction
p4731
(dp4732
g8
I2
sg9
Nsg10
Nsg11
S'ARG4-of'
p4733
sg12
Nsg13
g107
sba(iamr_util.Actions
AMRAction
p4734
(dp4735
g8
I2
sg9
Nsg10
Nsg11
S'mod'
p4736
sg12
Nsg13
g107
sba(iamr_util.Actions
AMRAction
p4737
(dp4738
g8
I3
sg9
Nsg10
Nsg11
Nsg12
Nsg13
g14
sba(iamr_util.Actions
AMRAction
p4739
(dp4740
g8
I3
sg9
Nsg10
Nsg11
Nsg12
Nsg13
g14
sba(iamr_util.Actions
AMRAction
p4741
(dp4742
g8
I3
sg9
Nsg10
Nsg11
Nsg12
Nsg13
g14
sba(iamr_util.Actions
AMRAction
p4743
(dp4744
g8
I3
sg9
Nsg10
Nsg11
Nsg12
Nsg13
g14
sba(iamr_util.Actions
AMRAction
p4745
(dp4746
g8
I3
sg9
Nsg10
Nsg11
Nsg12
Nsg13
g14
sba(iamr_util.Actions
AMRAction
p4747
(dp4748
g8
I0
sg9
Nsg10
Nsg11
S'quick-02'
p4749
sg12
g4271
sg13
g31
sba(iamr_util.Actions
AMRAction
p4750
(dp4751
g8
I0
sg9
Nsg10
Nsg11
S'restore-01'
p4752
sg12
S'r2'
p4753
sg13
g31
sba(iamr_util.Actions
AMRAction
p4754
(dp4755
g8
I1
sg9
Nsg10
Nsg11
S'ARG1-of'
p4756
sg12
Nsg13
g83
sba(iamr_util.Actions
AMRAction
p4757
(dp4758
g8
I1
sg9
Nsg10
Nsg11
S'time'
p4759
sg12
Nsg13
g83
sba(iamr_util.Actions
AMRAction
p4760
(dp4761
g8
I3
sg9
Nsg10
Nsg11
Nsg12
Nsg13
g14
sbaS'(r2 / restore-01~e.16\n      :ARG1 (COREF_e_0 / electricity)\n      :ARG1-of (q / quick-02~e.15)\n      :time (c3 / case~e.2\n            :quant (m3 / most~e.1)\n            :mod~e.3 (i / installation~e.5\n                  :mod (m2 / military~e.4)\n                  :ARG4-of (c2 / cut-off-04~e.9,10\n                        :ARG1 (e / electricity~e.8,12)))))'
p4762
(dp4763
(lp4764
(lp4765
(dp4766
I1
tp4767
tp4768
Rp4769
ag1
(g2
g3
(S"Iran will not succumb to international pressure to curb Iran 's nuclear projects ."
p4770
(lp4771
(iamr_util.Actions
AMRAction
p4772
(dp4773
g8
I3
sg9
Nsg10
Nsg11
Nsg12
Nsg13
g14
sba(iamr_util.Actions
AMRAction
p4774
(dp4775
g8
I3
sg9
Nsg10
Nsg11
Nsg12
Nsg13
g14
sba(iamr_util.Actions
AMRAction
p4776
(dp4777
g8
I0
sg9
Nsg10
Nsg11
g1
(g137
g138
g139
tp4778
Rp4779
sg12
g4779
sg13
g31
sba(iamr_util.Actions
AMRAction
p4780
(dp4781
g8
I0
sg9
Nsg10
Nsg11
S'succumb-01'
p4782
sg12
g179
sg13
g31
sba(iamr_util.Actions
AMRAction
p4783
(dp4784
g8
I1
sg9
Nsg10
Nsg11
S'polarity'
p4785
sg12
Nsg13
g83
sba(iamr_util.Actions
AMRAction
p4786
(dp4787
g8
I3
sg9
Nsg10
Nsg11
Nsg12
Nsg13
g14
sba(iamr_util.Actions
AMRAction
p4788
(dp4789
g8
I0
sg9
Nsg10
Nsg11
S'international'
p4790
sg12
g75
sg13
g31
sba(iamr_util.Actions
AMRAction
p4791
(dp4792
g8
I0
sg9
Nsg10
Nsg11
S'pressure-01'
p4793
sg12
g183
sg13
g31
sba(iamr_util.Actions
AMRAction
p4794
(dp4795
g8
I1
sg9
Nsg10
Nsg11
S'mod'
p4796
sg12
Nsg13
g83
sba(iamr_util.Actions
AMRAction
p4797
(dp4798
g8
I3
sg9
Nsg10
Nsg11
Nsg12
Nsg13
g14
sba(iamr_util.Actions
AMRAction
p4799
(dp4800
g8
I0
sg9
Nsg10
Nsg11
S'curb-01'
p4801
sg12
S'c2'
p4802
sg13
g31
sba(iamr_util.Actions
AMRAction
p4803
(dp4804
g8
I0
sg9
Nsg10
Nsg11
S'country'
p4805
sg12
S'COREF_c_0'
p4806
sg13
g31
sba(iamr_util.Actions
AMRAction
p4807
(dp4808
g8
I3
sg9
Nsg10
Nsg11
Nsg12
Nsg13
g14
sba(iamr_util.Actions
AMRAction
p4809
(dp4810
g8
I0
sg9
Nsg10
Nsg11
S'nucleus'
p4811
sg12
S'n2'
p4812
sg13
g31
sba(iamr_util.Actions
AMRAction
p4813
(dp4814
g8
I0
sg9
Nsg10
Nsg11
S'project'
p4815
sg12
S'p2'
p4816
sg13
g31
sba(iamr_util.Actions
AMRAction
p4817
(dp4818
g8
I1
sg9
Nsg10
Nsg11
S'mod'
p4819
sg12
Nsg13
g83
sba(iamr_util.Actions
AMRAction
p4820
(dp4821
g8
I1
sg9
Nsg10
Nsg11
S'poss'
p4822
sg12
Nsg13
g83
sba(iamr_util.Actions
AMRAction
p4823
(dp4824
g8
I2
sg9
Nsg10
Nsg11
S'ARG1'
p4825
sg12
Nsg13
g107
sba(iamr_util.Actions
AMRAction
p4826
(dp4827
g8
I2
sg9
Nsg10
Nsg11
S'ARG2'
p4828
sg12
Nsg13
g107
sba(iamr_util.Actions
AMRAction
p4829
(dp4830
g8
I2
sg9
Nsg10
Nsg11
S'ARG1'
p4831
sg12
Nsg13
g107
sba(iamr_util.Actions
AMRAction
p4832
(dp4833
g8
I3
sg9
Nsg10
Nsg11
Nsg12
Nsg13
g14
sbaS'(s / succumb-01~e.3 :polarity~e.2 -~e.2\n      :ARG0 (c / country)\n      :ARG1 (p / pressure-01~e.6\n            :ARG2 (c2 / curb-01~e.8\n                  :ARG1 (p2 / project~e.12\n                        :mod (n2 / nucleus~e.11)\n                        :poss~e.10 (COREF_c_0 / country~e.9)))\n            :mod (i / international~e.5)))'
p4834
(dp4835
(lp4836
(lp4837
(dp4838
I1
tp4839
tp4840
Rp4841
ag1
(g2
g3
(S'date-entity .'
p4842
(lp4843
(iamr_util.Actions
AMRAction
p4844
(dp4845
g8
I0
sg9
Nsg10
Nsg11
S'date-entity'
p4846
sg12
g266
sg13
g31
sba(iamr_util.Actions
AMRAction
p4847
(dp4848
g8
I3
sg9
Nsg10
Nsg11
Nsg12
Nsg13
g14
sbaS'(s / state-01~e.6\n      :ARG0 (g / government-organization)\n      :ARG1~e.7 (p2 / plan-01~e.12\n            :ARG0 (i / insurgent~e.11\n                  :ARG0-of (o / oppose-01~e.8\n                        :ARG1 (g2 / government-organization~e.10\n                              :ARG0-of~e.10 (g3 / govern-01~e.10))))\n            :ARG1 (v / violence~e.14\n                  :mod (n2 / new~e.13))\n            :time (b / before~e.15\n                  :op1 (s2 / strike-02~e.18\n                        :ARG1-of (g4 / general-02~e.17)\n                        :ARG1-of (d2 / declare-02~e.19\n                              :prep-for~e.20 (d3 / date-entity~e.21 :year~e.21 2002~e.21 :month~e.21 9~e.21 :day~e.21 16~e.21)))))\n      :time (d / date-entity~e.0 :year~e.0 2002~e.0 :month~e.0 9~e.0 :day~e.0 3~e.0)\n      :ARG1-of (p / public-02~e.5))'
p4849
(dp4850
(lp4851
(lp4852
(dp4853
g266
(iamr_util.Node
Node
p4854
(dp4855
g297
Nsg298
(lp4856
((iamr_util.Node
Node
p4857
(dp4858
g297
g1
(g302
g138
S'2002'
p4859
tp4860
Rp4861
sg298
(lp4862
sg11
NsbS'year'
p4863
tp4864
a((iamr_util.Node
Node
p4865
(dp4866
g297
g1
(g302
g138
S'3'
p4867
tp4868
Rp4869
sg298
(lp4870
sg11
NsbS'day'
p4871
tp4872
a((iamr_util.Node
Node
p4873
(dp4874
g297
g1
(g302
g138
g2499
tp4875
Rp4876
sg298
(lp4877
sg11
NsbS'month'
p4878
tp4879
asg11
g325
sbsS'd3'
p4880
(iamr_util.Node
Node
p4881
(dp4882
g297
Nsg298
(lp4883
((iamr_util.Node
Node
p4884
(dp4885
g297
g1
(g302
g138
S'2002'
p4886
tp4887
Rp4888
sg298
(lp4889
sg11
NsbS'year'
p4890
tp4891
a((iamr_util.Node
Node
p4892
(dp4893
g297
g1
(g302
g138
S'16'
p4894
tp4895
Rp4896
sg298
(lp4897
sg11
NsbS'day'
p4898
tp4899
a((iamr_util.Node
Node
p4900
(dp4901
g297
g1
(g302
g138
g2499
tp4902
Rp4903
sg298
(lp4904
sg11
NsbS'month'
p4905
tp4906
asg11
g325
sbsI1
tp4907
tp4908
Rp4909
a.