(lp0
ccopy_reg
_reconstructor
p1
(cTrainingDataExtractor
TrainingData
p2
c__builtin__
tuple
p3
(S'And an additional benefit was that many people who had been deluded came to their senses .'
p4
(lp5
(iamr_util.Actions
AMRAction
p6
(dp7
S'index'
p8
I0
sS'key2'
p9
NsS'label2'
p10
NsS'label'
p11
S'and'
p12
sS'key'
p13
S'a'
p14
sS'action'
p15
S'SH'
p16
sba(iamr_util.Actions
AMRAction
p17
(dp18
g8
I3
sg9
Nsg10
Nsg11
Nsg13
Nsg15
S'DN'
p19
sba(iamr_util.Actions
AMRAction
p20
(dp21
g8
I0
sg9
Nsg10
Nsg11
S'additional'
p22
sg13
S'a2'
p23
sg15
g16
sba(iamr_util.Actions
AMRAction
p24
(dp25
g8
I0
sg9
Nsg10
Nsg11
S'benefit-01'
p26
sg13
S'b'
p27
sg15
g16
sba(iamr_util.Actions
AMRAction
p28
(dp29
g8
I1
sg9
Nsg10
Nsg11
S'mod'
p30
sg13
Nsg15
S'RL'
p31
sba(iamr_util.Actions
AMRAction
p32
(dp33
g8
I3
sg9
Nsg10
Nsg11
Nsg13
Nsg15
g19
sba(iamr_util.Actions
AMRAction
p34
(dp35
g8
I3
sg9
Nsg10
Nsg11
Nsg13
Nsg15
g19
sba(iamr_util.Actions
AMRAction
p36
(dp37
g8
I0
sg9
Nsg10
Nsg11
S'many'
p38
sg13
S'm'
p39
sg15
g16
sba(iamr_util.Actions
AMRAction
p40
(dp41
g8
I0
sg9
Nsg10
Nsg11
S'person'
p42
sg13
S'p'
p43
sg15
g16
sba(iamr_util.Actions
AMRAction
p44
(dp45
g8
I1
sg9
Nsg10
Nsg11
S'quant'
p46
sg13
Nsg15
g31
sba(iamr_util.Actions
AMRAction
p47
(dp48
g8
I3
sg9
Nsg10
Nsg11
Nsg13
Nsg15
g19
sba(iamr_util.Actions
AMRAction
p49
(dp50
g8
I3
sg9
Nsg10
Nsg11
Nsg13
Nsg15
g19
sba(iamr_util.Actions
AMRAction
p51
(dp52
g8
I3
sg9
Nsg10
Nsg11
Nsg13
Nsg15
g19
sba(iamr_util.Actions
AMRAction
p53
(dp54
g8
I0
sg9
Nsg10
Nsg11
S'delude-01'
p55
sg13
S'd'
p56
sg15
g16
sba(iamr_util.Actions
AMRAction
p57
(dp58
g8
I2
sg9
Nsg10
Nsg11
S'ARG1-of'
p59
sg13
Nsg15
S'RR'
p60
sba(iamr_util.Actions
AMRAction
p61
(dp62
g8
I0
sg9
Nsg10
Nsg11
S'come-04'
p63
sg13
S'c'
p64
sg15
g16
sba(iamr_util.Actions
AMRAction
p65
(dp66
g8
I1
sg9
Nsg10
Nsg11
S'ARG1'
p67
sg13
Nsg15
g31
sba(iamr_util.Actions
AMRAction
p68
(dp69
g8
I3
sg9
Nsg10
Nsg11
Nsg13
Nsg15
g19
sba(iamr_util.Actions
AMRAction
p70
(dp71
g8
I0
sg9
Nsg10
Nsg11
S'person'
p72
sg13
S'COREF_p_0'
p73
sg15
g16
sba(iamr_util.Actions
AMRAction
p74
(dp75
g8
I0
sg9
Nsg10
Nsg11
S'sense-01'
p76
sg13
S's'
p77
sg15
g16
sba(iamr_util.Actions
AMRAction
p78
(dp79
g8
I1
sg9
Nsg10
Nsg11
S'ARG0'
p80
sg13
Nsg15
g31
sba(iamr_util.Actions
AMRAction
p81
(dp82
g8
I2
sg9
Nsg10
Nsg11
S'ARG2'
p83
sg13
Nsg15
g60
sba(iamr_util.Actions
AMRAction
p84
(dp85
g8
I2
sg9
Nsg10
Nsg11
S'ARG0'
p86
sg13
Nsg15
g60
sba(iamr_util.Actions
AMRAction
p87
(dp88
g8
I2
sg9
Nsg10
Nsg11
S'op2'
p89
sg13
Nsg15
g60
sba(iamr_util.Actions
AMRAction
p90
(dp91
g8
I3
sg9
Nsg10
Nsg11
Nsg13
Nsg15
g19
sbaS'(a / and~e.0\n      :op2 (b / benefit-01~e.3\n            :ARG0 (c / come-04~e.12\n                  :ARG1 (p / person~e.7\n                        :ARG1-of (d / delude-01~e.11)\n                        :quant (m / many~e.6))\n                  :ARG2~e.13 (s / sense-01~e.15\n                        :ARG0~e.14 (COREF_p_0 / person~e.14)))\n            :mod (a2 / additional~e.2)))'
p92
(dp93
(lp94
(lp95
(dp96
I1
tp97
tp98
Rp99
ag1
(g2
g3
(S'He admitted that he was not sensitive enough to the current situation when he wrote his blog .'
p100
(lp101
(iamr_util.Actions
AMRAction
p102
(dp103
g8
I0
sg9
Nsg10
Nsg11
S'he'
p104
sg13
S'h'
p105
sg15
g16
sba(iamr_util.Actions
AMRAction
p106
(dp107
g8
I0
sg9
Nsg10
Nsg11
S'admit-01'
p108
sg13
g14
sg15
g16
sba(iamr_util.Actions
AMRAction
p109
(dp110
g8
I1
sg9
Nsg10
Nsg11
S'ARG0'
p111
sg13
Nsg15
g31
sba(iamr_util.Actions
AMRAction
p112
(dp113
g8
I3
sg9
Nsg10
Nsg11
Nsg13
Nsg15
g19
sba(iamr_util.Actions
AMRAction
p114
(dp115
g8
I0
sg9
Nsg10
Nsg11
S'he'
p116
sg13
S'COREF_h_0'
p117
sg15
g16
sba(iamr_util.Actions
AMRAction
p118
(dp119
g8
I3
sg9
Nsg10
Nsg11
Nsg13
Nsg15
g19
sba(iamr_util.Actions
AMRAction
p120
(dp121
g8
I0
sg9
Nsg10
Nsg11
g1
(cutil
Polarity
p122
c__builtin__
str
p123
S'-'
p124
tp125
Rp126
sg13
g126
sg15
g16
sba(iamr_util.Actions
AMRAction
p127
(dp128
g8
I0
sg9
Nsg10
Nsg11
S'sensitive-03'
p129
sg13
g77
sg15
g16
sba(iamr_util.Actions
AMRAction
p130
(dp131
g8
I4
sg9
Nsg10
Nsg11
Nsg13
Nsg15
S'SW'
p132
sba(iamr_util.Actions
AMRAction
p133
(dp134
g8
I1
sg9
Nsg10
Nsg11
S'ARG0'
p135
sg13
Nsg15
g31
sba(iamr_util.Actions
AMRAction
p136
(dp137
g8
I0
sg9
Nsg10
Nsg11
S'enough'
p138
sg13
S'e'
p139
sg15
g16
sba(iamr_util.Actions
AMRAction
p140
(dp141
g8
I4
sg9
Nsg10
Nsg11
Nsg13
Nsg15
g132
sba(iamr_util.Actions
AMRAction
p142
(dp143
g8
I1
sg9
Nsg10
Nsg11
S'polarity'
p144
sg13
Nsg15
g31
sba(iamr_util.Actions
AMRAction
p145
(dp146
g8
I2
sg9
Nsg10
Nsg11
S'degree'
p147
sg13
Nsg15
g60
sba(iamr_util.Actions
AMRAction
p148
(dp149
g8
I3
sg9
Nsg10
Nsg11
Nsg13
Nsg15
g19
sba(iamr_util.Actions
AMRAction
p150
(dp151
g8
I3
sg9
Nsg10
Nsg11
Nsg13
Nsg15
g19
sba(iamr_util.Actions
AMRAction
p152
(dp153
g8
I0
sg9
Nsg10
Nsg11
S'current'
p154
sg13
g64
sg15
g16
sba(iamr_util.Actions
AMRAction
p155
(dp156
g8
I0
sg9
Nsg10
Nsg11
S'situation'
p157
sg13
S's2'
p158
sg15
g16
sba(iamr_util.Actions
AMRAction
p159
(dp160
g8
I1
sg9
Nsg10
Nsg11
S'time'
p161
sg13
Nsg15
g31
sba(iamr_util.Actions
AMRAction
p162
(dp163
g8
I2
sg9
Nsg10
Nsg11
S'ARG1'
p164
sg13
Nsg15
g60
sba(iamr_util.Actions
AMRAction
p165
(dp166
g8
I3
sg9
Nsg10
Nsg11
Nsg13
Nsg15
g19
sba(iamr_util.Actions
AMRAction
p167
(dp168
g8
I0
sg9
Nsg10
Nsg11
S'he'
p169
sg13
S'COREF_h_1'
p170
sg15
g16
sba(iamr_util.Actions
AMRAction
p171
(dp172
g8
I0
sg9
Nsg10
Nsg11
S'write-01'
p173
sg13
S'w'
p174
sg15
g16
sba(iamr_util.Actions
AMRAction
p175
(dp176
g8
I1
sg9
Nsg10
Nsg11
S'ARG0'
p177
sg13
Nsg15
g31
sba(iamr_util.Actions
AMRAction
p178
(dp179
g8
I0
sg9
Nsg10
Nsg11
S'he'
p180
sg13
S'COREF_h_2'
p181
sg15
g16
sba(iamr_util.Actions
AMRAction
p182
(dp183
g8
I0
sg9
Nsg10
Nsg11
S'blog'
p184
sg13
g27
sg15
g16
sba(iamr_util.Actions
AMRAction
p185
(dp186
g8
I1
sg9
Nsg10
Nsg11
S'poss'
p187
sg13
Nsg15
g31
sba(iamr_util.Actions
AMRAction
p188
(dp189
g8
I2
sg9
Nsg10
Nsg11
S'ARG1'
p190
sg13
Nsg15
g60
sba(iamr_util.Actions
AMRAction
p191
(dp192
g8
I2
sg9
Nsg10
Nsg11
S'time'
p193
sg13
Nsg15
g60
sba(iamr_util.Actions
AMRAction
p194
(dp195
g8
I2
sg9
Nsg10
Nsg11
S'ARG1'
p196
sg13
Nsg15
g60
sba(iamr_util.Actions
AMRAction
p197
(dp198
g8
I3
sg9
Nsg10
Nsg11
Nsg13
Nsg15
g19
sbaS'(a / admit-01~e.1\n      :ARG0 (h / he~e.0)\n      :ARG1~e.2 (s / sensitive-03~e.6\n            :ARG0 (COREF_h_0 / he~e.3)\n            :ARG1~e.8 (s2 / situation~e.11\n                  :time (c / current~e.10))\n            :time~e.12 (w / write-01~e.14\n                  :ARG0 (COREF_h_1 / he~e.13)\n                  :ARG1 (b / blog~e.16\n                        :poss~e.15 (COREF_h_2 / he~e.15)))\n            :degree (e / enough~e.7 :polarity~e.5 -~e.5)))'
p199
(dp200
(lp201
(lp202
(dp203
I1
tp204
tp205
Rp206
ag1
(g2
g3
(S'so a lot of rich people donated their money to the Church before they died .'
p207
(lp208
(iamr_util.Actions
AMRAction
p209
(dp210
g8
I3
sg9
Nsg10
Nsg11
Nsg13
Nsg15
g19
sba(iamr_util.Actions
AMRAction
p211
(dp212
g8
I3
sg9
Nsg10
Nsg11
Nsg13
Nsg15
g19
sba(iamr_util.Actions
AMRAction
p213
(dp214
g8
I0
sg9
Nsg10
Nsg11
S'lot'
p215
sg13
S'l'
p216
sg15
g16
sba(iamr_util.Actions
AMRAction
p217
(dp218
g8
I3
sg9
Nsg10
Nsg11
Nsg13
Nsg15
g19
sba(iamr_util.Actions
AMRAction
p219
(dp220
g8
I0
sg9
Nsg10
Nsg11
S'rich'
p221
sg13
S'r'
p222
sg15
g16
sba(iamr_util.Actions
AMRAction
p223
(dp224
g8
I0
sg9
Nsg10
Nsg11
S'person'
p225
sg13
g43
sg15
g16
sba(iamr_util.Actions
AMRAction
p226
(dp227
g8
I1
sg9
Nsg10
Nsg11
S'mod'
p228
sg13
Nsg15
g31
sba(iamr_util.Actions
AMRAction
p229
(dp230
g8
I1
sg9
Nsg10
Nsg11
S'quant'
p231
sg13
Nsg15
g31
sba(iamr_util.Actions
AMRAction
p232
(dp233
g8
I0
sg9
Nsg10
Nsg11
S'donate-01'
p234
sg13
g56
sg15
g16
sba(iamr_util.Actions
AMRAction
p235
(dp236
g8
I1
sg9
Nsg10
Nsg11
S'ARG0'
p237
sg13
Nsg15
g31
sba(iamr_util.Actions
AMRAction
p238
(dp239
g8
I0
sg9
Nsg10
Nsg11
S'person'
p240
sg13
S'COREF_p_0'
p241
sg15
g16
sba(iamr_util.Actions
AMRAction
p242
(dp243
g8
I0
sg9
Nsg10
Nsg11
S'money'
p244
sg13
g39
sg15
g16
sba(iamr_util.Actions
AMRAction
p245
(dp246
g8
I1
sg9
Nsg10
Nsg11
S'poss'
p247
sg13
Nsg15
g31
sba(iamr_util.Actions
AMRAction
p248
(dp249
g8
I2
sg9
Nsg10
Nsg11
S'ARG1'
p250
sg13
Nsg15
g60
sba(iamr_util.Actions
AMRAction
p251
(dp252
g8
I3
sg9
Nsg10
Nsg11
Nsg13
Nsg15
g19
sba(iamr_util.Actions
AMRAction
p253
(dp254
g8
I3
sg9
Nsg10
Nsg11
Nsg13
Nsg15
g19
sba(iamr_util.Actions
AMRAction
p255
(dp256
g8
I3
sg9
Nsg10
Nsg11
Nsg13
Nsg15
g19
sba(iamr_util.Actions
AMRAction
p257
(dp258
g8
I0
sg9
Nsg10
Nsg11
S'before'
p259
sg13
g27
sg15
g16
sba(iamr_util.Actions
AMRAction
p260
(dp261
g8
I0
sg9
Nsg10
Nsg11
S'person'
p262
sg13
S'COREF_p_1'
p263
sg15
g16
sba(iamr_util.Actions
AMRAction
p264
(dp265
g8
I0
sg9
Nsg10
Nsg11
S'die-01'
p266
sg13
S'd2'
p267
sg15
g16
sba(iamr_util.Actions
AMRAction
p268
(dp269
g8
I1
sg9
Nsg10
Nsg11
S'ARG1'
p270
sg13
Nsg15
g31
sba(iamr_util.Actions
AMRAction
p271
(dp272
g8
I2
sg9
Nsg10
Nsg11
S'op1'
p273
sg13
Nsg15
g60
sba(iamr_util.Actions
AMRAction
p274
(dp275
g8
I2
sg9
Nsg10
Nsg11
S'time'
p276
sg13
Nsg15
g60
sba(iamr_util.Actions
AMRAction
p277
(dp278
g8
I3
sg9
Nsg10
Nsg11
Nsg13
Nsg15
g19
sbaS'(i / infer-01\n      :ARG1 (d / donate-01~e.6\n            :ARG0 (p / person~e.5\n                  :quant~e.3 (l / lot~e.2)\n                  :mod (r / rich~e.4))\n            :ARG1 (m / money~e.8\n                  :poss~e.7 (COREF_p_0 / person~e.7))\n            :ARG2~e.9 (o / organization)\n            :time (b / before~e.12\n                  :op1 (d2 / die-01~e.14\n                        :ARG1 (COREF_p_1 / person~e.13)))))'
p279
(dp280
(lp281
(lp282
(dp283
I1
tp284
tp285
Rp286
ag1
(g2
g3
(S"Kindergarten buildings also collapsed , and little children 's frail bodies fell helplessly next to the crumbled walls where they closed their innocent eyes forever ."
p287
(lp288
(iamr_util.Actions
AMRAction
p289
(dp290
g8
I0
sg9
Nsg10
Nsg11
S'kindergarten'
p291
sg13
S'k'
p292
sg15
g16
sba(iamr_util.Actions
AMRAction
p293
(dp294
g8
I0
sg9
Nsg10
Nsg11
S'building'
p295
sg13
g27
sg15
g16
sba(iamr_util.Actions
AMRAction
p296
(dp297
g8
I1
sg9
Nsg10
Nsg11
S'mod'
p298
sg13
Nsg15
g31
sba(iamr_util.Actions
AMRAction
p299
(dp300
g8
I0
sg9
Nsg10
Nsg11
S'also'
p301
sg13
S'a2'
p302
sg15
g16
sba(iamr_util.Actions
AMRAction
p303
(dp304
g8
I0
sg9
Nsg10
Nsg11
S'collapse-01'
p305
sg13
g64
sg15
g16
sba(iamr_util.Actions
AMRAction
p306
(dp307
g8
I1
sg9
Nsg10
Nsg11
S'mod'
p308
sg13
Nsg15
g31
sba(iamr_util.Actions
AMRAction
p309
(dp310
g8
I1
sg9
Nsg10
Nsg11
S'ARG1'
p311
sg13
Nsg15
g31
sba(iamr_util.Actions
AMRAction
p312
(dp313
g8
I3
sg9
Nsg10
Nsg11
Nsg13
Nsg15
g19
sba(iamr_util.Actions
AMRAction
p314
(dp315
g8
I0
sg9
Nsg10
Nsg11
S'and'
p316
sg13
g14
sg15
g16
sba(iamr_util.Actions
AMRAction
p317
(dp318
g8
I1
sg9
Nsg10
Nsg11
S'op1'
p319
sg13
Nsg15
g31
sba(iamr_util.Actions
AMRAction
p320
(dp321
g8
I0
sg9
Nsg10
Nsg11
S'little'
p322
sg13
g216
sg15
g16
sba(iamr_util.Actions
AMRAction
p323
(dp324
g8
I0
sg9
Nsg10
Nsg11
S'child'
p325
sg13
S'c2'
p326
sg15
g16
sba(iamr_util.Actions
AMRAction
p327
(dp328
g8
I1
sg9
Nsg10
Nsg11
S'mod'
p329
sg13
Nsg15
g31
sba(iamr_util.Actions
AMRAction
p330
(dp331
g8
I3
sg9
Nsg10
Nsg11
Nsg13
Nsg15
g19
sba(iamr_util.Actions
AMRAction
p332
(dp333
g8
I0
sg9
Nsg10
Nsg11
S'frail'
p334
sg13
S'f2'
p335
sg15
g16
sba(iamr_util.Actions
AMRAction
p336
(dp337
g8
I0
sg9
Nsg10
Nsg11
S'body'
p338
sg13
S'b2'
p339
sg15
g16
sba(iamr_util.Actions
AMRAction
p340
(dp341
g8
I1
sg9
Nsg10
Nsg11
S'mod'
p342
sg13
Nsg15
g31
sba(iamr_util.Actions
AMRAction
p343
(dp344
g8
I1
sg9
Nsg10
Nsg11
S'poss'
p345
sg13
Nsg15
g31
sba(iamr_util.Actions
AMRAction
p346
(dp347
g8
I0
sg9
Nsg10
Nsg11
S'fall-01'
p348
sg13
S'f'
p349
sg15
g16
sba(iamr_util.Actions
AMRAction
p350
(dp351
g8
I1
sg9
Nsg10
Nsg11
S'ARG1'
p352
sg13
Nsg15
g31
sba(iamr_util.Actions
AMRAction
p353
(dp354
g8
I0
sg9
Nsg10
Nsg11
S'helpless'
p355
sg13
g105
sg15
g16
sba(iamr_util.Actions
AMRAction
p356
(dp357
g8
I2
sg9
Nsg10
Nsg11
S'manner'
p358
sg13
Nsg15
g60
sba(iamr_util.Actions
AMRAction
p359
(dp360
g8
I0
sg9
Nsg10
Nsg11
S'next-to'
p361
sg13
S'n'
p362
sg15
g16
sba(iamr_util.Actions
AMRAction
p363
(dp364
g8
I3
sg9
Nsg10
Nsg11
Nsg13
Nsg15
g19
sba(iamr_util.Actions
AMRAction
p365
(dp366
g8
I3
sg9
Nsg10
Nsg11
Nsg13
Nsg15
g19
sba(iamr_util.Actions
AMRAction
p367
(dp368
g8
I0
sg9
Nsg10
Nsg11
S'crumble-01'
p369
sg13
S'c3'
p370
sg15
g16
sba(iamr_util.Actions
AMRAction
p371
(dp372
g8
I0
sg9
Nsg10
Nsg11
S'wall'
p373
sg13
g174
sg15
g16
sba(iamr_util.Actions
AMRAction
p374
(dp375
g8
I1
sg9
Nsg10
Nsg11
S'ARG1-of'
p376
sg13
Nsg15
g31
sba(iamr_util.Actions
AMRAction
p377
(dp378
g8
I3
sg9
Nsg10
Nsg11
Nsg13
Nsg15
g19
sba(iamr_util.Actions
AMRAction
p379
(dp380
g8
I0
sg9
Nsg10
Nsg11
S'child'
p381
sg13
S'COREF_c2_0'
p382
sg15
g16
sba(iamr_util.Actions
AMRAction
p383
(dp384
g8
I0
sg9
Nsg10
Nsg11
S'close-01'
p385
sg13
S'c4'
p386
sg15
g16
sba(iamr_util.Actions
AMRAction
p387
(dp388
g8
I1
sg9
Nsg10
Nsg11
S'ARG0'
p389
sg13
Nsg15
g31
sba(iamr_util.Actions
AMRAction
p390
(dp391
g8
I0
sg9
Nsg10
Nsg11
S'child'
p392
sg13
S'COREF_c2_1'
p393
sg15
g16
sba(iamr_util.Actions
AMRAction
p394
(dp395
g8
I0
sg9
Nsg10
Nsg11
S'innocent-01'
p396
sg13
S'i'
p397
sg15
g16
sba(iamr_util.Actions
AMRAction
p398
(dp399
g8
I0
sg9
Nsg10
Nsg11
S'eye'
p400
sg13
g139
sg15
g16
sba(iamr_util.Actions
AMRAction
p401
(dp402
g8
I1
sg9
Nsg10
Nsg11
S'ARG1-of'
p403
sg13
Nsg15
g31
sba(iamr_util.Actions
AMRAction
p404
(dp405
g8
I1
sg9
Nsg10
Nsg11
S'part-of'
p406
sg13
Nsg15
g31
sba(iamr_util.Actions
AMRAction
p407
(dp408
g8
I2
sg9
Nsg10
Nsg11
S'ARG1'
p409
sg13
Nsg15
g60
sba(iamr_util.Actions
AMRAction
p410
(dp411
g8
I0
sg9
Nsg10
Nsg11
S'forever'
p412
sg13
S'f3'
p413
sg15
g16
sba(iamr_util.Actions
AMRAction
p414
(dp415
g8
I2
sg9
Nsg10
Nsg11
S'duration'
p416
sg13
Nsg15
g60
sba(iamr_util.Actions
AMRAction
p417
(dp418
g8
I2
sg9
Nsg10
Nsg11
S'location-of'
p419
sg13
Nsg15
g60
sba(iamr_util.Actions
AMRAction
p420
(dp421
g8
I2
sg9
Nsg10
Nsg11
S'op1'
p422
sg13
Nsg15
g60
sba(iamr_util.Actions
AMRAction
p423
(dp424
g8
I2
sg9
Nsg10
Nsg11
S'ARG4'
p425
sg13
Nsg15
g60
sba(iamr_util.Actions
AMRAction
p426
(dp427
g8
I2
sg9
Nsg10
Nsg11
S'op2'
p428
sg13
Nsg15
g60
sba(iamr_util.Actions
AMRAction
p429
(dp430
g8
I3
sg9
Nsg10
Nsg11
Nsg13
Nsg15
g19
sbaS'(a / and~e.5\n      :op1 (c / collapse-01~e.3\n            :ARG1 (b / building~e.1\n                  :mod (k / kindergarten~e.0))\n            :mod (a2 / also~e.2))\n      :op2 (f / fall-01~e.11\n            :ARG1 (b2 / body~e.10\n                  :poss~e.8 (c2 / child~e.7\n                        :mod (l / little~e.6))\n                  :mod (f2 / frail~e.9))\n            :ARG4 (n / next-to~e.13,14\n                  :op1 (w / wall~e.17\n                        :ARG1-of (c3 / crumble-01~e.16)\n                        :location-of~e.18 (c4 / close-01~e.20\n                              :ARG0 (COREF_c2_0 / child~e.19)\n                              :ARG1 (e / eye~e.23\n                                    :part-of~e.21 (COREF_c2_1 / child~e.21)\n                                    :ARG1-of (i / innocent-01~e.22))\n                              :duration (f3 / forever~e.24))))\n            :manner~e.12 (h / helpless~e.12)))'
p431
(dp432
(lp433
(lp434
(dp435
I1
tp436
tp437
Rp438
ag1
(g2
g3
(S'Children are the flowers of our motherland and future of our motherland .'
p439
(lp440
(iamr_util.Actions
AMRAction
p441
(dp442
g8
I0
sg9
Nsg10
Nsg11
S'child'
p443
sg13
g64
sg15
g16
sba(iamr_util.Actions
AMRAction
p444
(dp445
g8
I3
sg9
Nsg10
Nsg11
Nsg13
Nsg15
g19
sba(iamr_util.Actions
AMRAction
p446
(dp447
g8
I3
sg9
Nsg10
Nsg11
Nsg13
Nsg15
g19
sba(iamr_util.Actions
AMRAction
p448
(dp449
g8
I0
sg9
Nsg10
Nsg11
S'flower'
p450
sg13
g349
sg15
g16
sba(iamr_util.Actions
AMRAction
p451
(dp452
g8
I3
sg9
Nsg10
Nsg11
Nsg13
Nsg15
g19
sba(iamr_util.Actions
AMRAction
p453
(dp454
g8
I0
sg9
Nsg10
Nsg11
S'we'
p455
sg13
g174
sg15
g16
sba(iamr_util.Actions
AMRAction
p456
(dp457
g8
I0
sg9
Nsg10
Nsg11
S'motherland'
p458
sg13
g39
sg15
g16
sba(iamr_util.Actions
AMRAction
p459
(dp460
g8
I1
sg9
Nsg10
Nsg11
S'poss'
p461
sg13
Nsg15
g31
sba(iamr_util.Actions
AMRAction
p462
(dp463
g8
I2
sg9
Nsg10
Nsg11
S'poss'
p464
sg13
Nsg15
g60
sba(iamr_util.Actions
AMRAction
p465
(dp466
g8
I0
sg9
Nsg10
Nsg11
S'and'
p467
sg13
g14
sg15
g16
sba(iamr_util.Actions
AMRAction
p468
(dp469
g8
I1
sg9
Nsg10
Nsg11
S'op1'
p470
sg13
Nsg15
g31
sba(iamr_util.Actions
AMRAction
p471
(dp472
g8
I1
sg9
Nsg10
Nsg11
S'domain'
p473
sg13
Nsg15
g31
sba(iamr_util.Actions
AMRAction
p474
(dp475
g8
I0
sg9
Nsg10
Nsg11
S'future'
p476
sg13
S'f2'
p477
sg15
g16
sba(iamr_util.Actions
AMRAction
p478
(dp479
g8
I3
sg9
Nsg10
Nsg11
Nsg13
Nsg15
g19
sba(iamr_util.Actions
AMRAction
p480
(dp481
g8
I0
sg9
Nsg10
Nsg11
S'motherland'
p482
sg13
S'COREF_m_0'
p483
sg15
g16
sba(iamr_util.Actions
AMRAction
p484
(dp485
g8
I2
sg9
Nsg10
Nsg11
S'poss'
p486
sg13
Nsg15
g60
sba(iamr_util.Actions
AMRAction
p487
(dp488
g8
I2
sg9
Nsg10
Nsg11
S'op2'
p489
sg13
Nsg15
g60
sba(iamr_util.Actions
AMRAction
p490
(dp491
g8
I3
sg9
Nsg10
Nsg11
Nsg13
Nsg15
g19
sba(iamr_util.Actions
AMRAction
p492
(dp493
g8
I3
sg9
Nsg10
Nsg11
Nsg13
Nsg15
g19
sbaS'(a / and~e.7\n      :op1 (f / flower~e.3\n            :poss~e.4 (m / motherland~e.6\n                  :poss~e.5 (w / we~e.5)))\n      :op2 (f2 / future~e.8\n            :poss~e.9 (COREF_m_0 / motherland~e.10,11))\n      :domain~e.1 (c / child~e.0))'
p494
(dp495
(lp496
(lp497
(dp498
I1
tp499
tp500
Rp501
ag1
(g2
g3
(S'Ultimately , it will reveal its wolf nature , and I hope the sheep will not be fooled by it .'
p502
(lp503
(iamr_util.Actions
AMRAction
p504
(dp505
g8
I0
sg9
Nsg10
Nsg11
S'ultimate'
p506
sg13
S'u'
p507
sg15
g16
sba(iamr_util.Actions
AMRAction
p508
(dp509
g8
I3
sg9
Nsg10
Nsg11
Nsg13
Nsg15
g19
sba(iamr_util.Actions
AMRAction
p510
(dp511
g8
I0
sg9
Nsg10
Nsg11
S'it'
p512
sg13
g397
sg15
g16
sba(iamr_util.Actions
AMRAction
p513
(dp514
g8
I3
sg9
Nsg10
Nsg11
Nsg13
Nsg15
g19
sba(iamr_util.Actions
AMRAction
p515
(dp516
g8
I0
sg9
Nsg10
Nsg11
S'reveal-01'
p517
sg13
g222
sg15
g16
sba(iamr_util.Actions
AMRAction
p518
(dp519
g8
I1
sg9
Nsg10
Nsg11
S'ARG0'
p520
sg13
Nsg15
g31
sba(iamr_util.Actions
AMRAction
p521
(dp522
g8
I1
sg9
Nsg10
Nsg11
S'time'
p523
sg13
Nsg15
g31
sba(iamr_util.Actions
AMRAction
p524
(dp525
g8
I0
sg9
Nsg10
Nsg11
S'it'
p526
sg13
S'COREF_i_0'
p527
sg15
g16
sba(iamr_util.Actions
AMRAction
p528
(dp529
g8
I0
sg9
Nsg10
Nsg11
S'wolf'
p530
sg13
g174
sg15
g16
sba(iamr_util.Actions
AMRAction
p531
(dp532
g8
I0
sg9
Nsg10
Nsg11
S'nature'
p533
sg13
g362
sg15
g16
sba(iamr_util.Actions
AMRAction
p534
(dp535
g8
I1
sg9
Nsg10
Nsg11
S'mod'
p536
sg13
Nsg15
g31
sba(iamr_util.Actions
AMRAction
p537
(dp538
g8
I1
sg9
Nsg10
Nsg11
S'poss'
p539
sg13
Nsg15
g31
sba(iamr_util.Actions
AMRAction
p540
(dp541
g8
I2
sg9
Nsg10
Nsg11
S'ARG1'
p542
sg13
Nsg15
g60
sba(iamr_util.Actions
AMRAction
p543
(dp544
g8
I3
sg9
Nsg10
Nsg11
Nsg13
Nsg15
g19
sba(iamr_util.Actions
AMRAction
p545
(dp546
g8
I0
sg9
Nsg10
Nsg11
S'and'
p547
sg13
g14
sg15
g16
sba(iamr_util.Actions
AMRAction
p548
(dp549
g8
I1
sg9
Nsg10
Nsg11
S'op1'
p550
sg13
Nsg15
g31
sba(iamr_util.Actions
AMRAction
p551
(dp552
g8
I0
sg9
Nsg10
Nsg11
g397
sg13
S'i2'
p553
sg15
g16
sba(iamr_util.Actions
AMRAction
p554
(dp555
g8
I0
sg9
Nsg10
Nsg11
S'hope-01'
p556
sg13
g105
sg15
g16
sba(iamr_util.Actions
AMRAction
p557
(dp558
g8
I1
sg9
Nsg10
Nsg11
S'ARG0'
p559
sg13
Nsg15
g31
sba(iamr_util.Actions
AMRAction
p560
(dp561
g8
I3
sg9
Nsg10
Nsg11
Nsg13
Nsg15
g19
sba(iamr_util.Actions
AMRAction
p562
(dp563
g8
I0
sg9
Nsg10
Nsg11
S'sheep'
p564
sg13
g77
sg15
g16
sba(iamr_util.Actions
AMRAction
p565
(dp566
g8
I3
sg9
Nsg10
Nsg11
Nsg13
Nsg15
g19
sba(iamr_util.Actions
AMRAction
p567
(dp568
g8
I0
sg9
Nsg10
Nsg11
g1
(g122
g123
g124
tp569
Rp570
sg13
g570
sg15
g16
sba(iamr_util.Actions
AMRAction
p571
(dp572
g8
I3
sg9
Nsg10
Nsg11
Nsg13
Nsg15
g19
sba(iamr_util.Actions
AMRAction
p573
(dp574
g8
I0
sg9
Nsg10
Nsg11
S'fool-01'
p575
sg13
g349
sg15
g16
sba(iamr_util.Actions
AMRAction
p576
(dp577
g8
I1
sg9
Nsg10
Nsg11
S'polarity'
p578
sg13
Nsg15
g31
sba(iamr_util.Actions
AMRAction
p579
(dp580
g8
I1
sg9
Nsg10
Nsg11
S'ARG1'
p581
sg13
Nsg15
g31
sba(iamr_util.Actions
AMRAction
p582
(dp583
g8
I3
sg9
Nsg10
Nsg11
Nsg13
Nsg15
g19
sba(iamr_util.Actions
AMRAction
p584
(dp585
g8
I0
sg9
Nsg10
Nsg11
S'it'
p586
sg13
S'COREF_i_1'
p587
sg15
g16
sba(iamr_util.Actions
AMRAction
p588
(dp589
g8
I2
sg9
Nsg10
Nsg11
S'ARG0'
p590
sg13
Nsg15
g60
sba(iamr_util.Actions
AMRAction
p591
(dp592
g8
I2
sg9
Nsg10
Nsg11
S'ARG1'
p593
sg13
Nsg15
g60
sba(iamr_util.Actions
AMRAction
p594
(dp595
g8
I2
sg9
Nsg10
Nsg11
S'op2'
p596
sg13
Nsg15
g60
sba(iamr_util.Actions
AMRAction
p597
(dp598
g8
I3
sg9
Nsg10
Nsg11
Nsg13
Nsg15
g19
sbaS'(a / and~e.9\n      :op1 (r / reveal-01~e.4\n            :ARG0 (i / it~e.2)\n            :ARG1 (n / nature~e.7\n                  :mod (w / wolf~e.6)\n                  :poss~e.5 (COREF_i_0 / it~e.5))\n            :time (u / ultimate~e.0))\n      :op2 (h / hope-01~e.11\n            :ARG0 (i2 / i~e.10)\n            :ARG1 (f / fool-01~e.17 :polarity~e.15 -~e.15\n                  :ARG0~e.18 (COREF_i_1 / it~e.19)\n                  :ARG1 (s / sheep~e.13))))'
p599
(dp600
(lp601
(lp602
(dp603
I1
tp604
tp605
Rp606
ag1
(g2
g3
(S'Nevertheless , the peace we aspire to will be only our good wish .'
p607
(lp608
(iamr_util.Actions
AMRAction
p609
(dp610
g8
I0
sg9
Nsg10
Nsg11
S'have-concession-91'
p611
sg13
g105
sg15
g16
sba(iamr_util.Actions
AMRAction
p612
(dp613
g8
I3
sg9
Nsg10
Nsg11
Nsg13
Nsg15
g19
sba(iamr_util.Actions
AMRAction
p614
(dp615
g8
I3
sg9
Nsg10
Nsg11
Nsg13
Nsg15
g19
sba(iamr_util.Actions
AMRAction
p616
(dp617
g8
I0
sg9
Nsg10
Nsg11
S'peace'
p618
sg13
g43
sg15
g16
sba(iamr_util.Actions
AMRAction
p619
(dp620
g8
I0
sg9
Nsg10
Nsg11
S'we'
p621
sg13
S'COREF_w2_0'
p622
sg15
g16
sba(iamr_util.Actions
AMRAction
p623
(dp624
g8
I0
sg9
Nsg10
Nsg11
S'aspire-01'
p625
sg13
g14
sg15
g16
sba(iamr_util.Actions
AMRAction
p626
(dp627
g8
I1
sg9
Nsg10
Nsg11
S'ARG0'
p628
sg13
Nsg15
g31
sba(iamr_util.Actions
AMRAction
p629
(dp630
g8
I2
sg9
Nsg10
Nsg11
S'ARG1-of'
p631
sg13
Nsg15
g60
sba(iamr_util.Actions
AMRAction
p632
(dp633
g8
I3
sg9
Nsg10
Nsg11
Nsg13
Nsg15
g19
sba(iamr_util.Actions
AMRAction
p634
(dp635
g8
I3
sg9
Nsg10
Nsg11
Nsg13
Nsg15
g19
sba(iamr_util.Actions
AMRAction
p636
(dp637
g8
I3
sg9
Nsg10
Nsg11
Nsg13
Nsg15
g19
sba(iamr_util.Actions
AMRAction
p638
(dp639
g8
I0
sg9
Nsg10
Nsg11
S'only'
p640
sg13
S'o2'
p641
sg15
g16
sba(iamr_util.Actions
AMRAction
p642
(dp643
g8
I0
sg9
Nsg10
Nsg11
S'we'
p644
sg13
S'w2'
p645
sg15
g16
sba(iamr_util.Actions
AMRAction
p646
(dp647
g8
I0
sg9
Nsg10
Nsg11
S'good'
p648
sg13
S'g'
p649
sg15
g16
sba(iamr_util.Actions
AMRAction
p650
(dp651
g8
I0
sg9
Nsg10
Nsg11
S'wish-01'
p652
sg13
g174
sg15
g16
sba(iamr_util.Actions
AMRAction
p653
(dp654
g8
I1
sg9
Nsg10
Nsg11
S'mod'
p655
sg13
Nsg15
g31
sba(iamr_util.Actions
AMRAction
p656
(dp657
g8
I1
sg9
Nsg10
Nsg11
S'ARG0'
p658
sg13
Nsg15
g31
sba(iamr_util.Actions
AMRAction
p659
(dp660
g8
I1
sg9
Nsg10
Nsg11
g655
sg13
Nsg15
g31
sba(iamr_util.Actions
AMRAction
p661
(dp662
g8
I1
sg9
Nsg10
Nsg11
S'ARG1'
p663
sg13
Nsg15
g31
sba(iamr_util.Actions
AMRAction
p664
(dp665
g8
I2
sg9
Nsg10
Nsg11
S'ARG1'
p666
sg13
Nsg15
g60
sba(iamr_util.Actions
AMRAction
p667
(dp668
g8
I3
sg9
Nsg10
Nsg11
Nsg13
Nsg15
g19
sbaS'(h / have-concession-91~e.0\n      :ARG1 (w / wish-01~e.12\n            :ARG0~e.10 (w2 / we~e.10)\n            :ARG1 (p / peace~e.3\n                  :ARG1-of (a / aspire-01~e.5\n                        :ARG0 (COREF_w2_0 / we~e.4)))\n            :mod (g / good~e.11)\n            :mod (o2 / only~e.9)))'
p669
(dp670
(lp671
(lp672
(dp673
I1
tp674
tp675
Rp676
ag1
(g2
g3
(S'Though China and America have fought each other on the battlefield , the wars were not directly between China and America .'
p677
(lp678
(iamr_util.Actions
AMRAction
p679
(dp680
g8
I3
sg9
Nsg10
Nsg11
Nsg13
Nsg15
g19
sba(iamr_util.Actions
AMRAction
p681
(dp682
g8
I0
sg9
Nsg10
Nsg11
S'country'
p683
sg13
S'COREF_c_0'
p684
sg15
g16
sba(iamr_util.Actions
AMRAction
p685
(dp686
g8
I3
sg9
Nsg10
Nsg11
Nsg13
Nsg15
g19
sba(iamr_util.Actions
AMRAction
p687
(dp688
g8
I0
sg9
Nsg10
Nsg11
S'country'
p689
sg13
S'COREF_c2_0'
p690
sg15
g16
sba(iamr_util.Actions
AMRAction
p691
(dp692
g8
I3
sg9
Nsg10
Nsg11
Nsg13
Nsg15
g19
sba(iamr_util.Actions
AMRAction
p693
(dp694
g8
I0
sg9
Nsg10
Nsg11
S'fight-01'
p695
sg13
g349
sg15
g16
sba(iamr_util.Actions
AMRAction
p696
(dp697
g8
I1
sg9
Nsg10
Nsg11
S'ARG1'
p698
sg13
Nsg15
g31
sba(iamr_util.Actions
AMRAction
p699
(dp700
g8
I1
sg9
Nsg10
Nsg11
S'ARG0'
p701
sg13
Nsg15
g31
sba(iamr_util.Actions
AMRAction
p702
(dp703
g8
I3
sg9
Nsg10
Nsg11
Nsg13
Nsg15
g19
sba(iamr_util.Actions
AMRAction
p704
(dp705
g8
I3
sg9
Nsg10
Nsg11
Nsg13
Nsg15
g19
sba(iamr_util.Actions
AMRAction
p706
(dp707
g8
I3
sg9
Nsg10
Nsg11
Nsg13
Nsg15
g19
sba(iamr_util.Actions
AMRAction
p708
(dp709
g8
I3
sg9
Nsg10
Nsg11
Nsg13
Nsg15
g19
sba(iamr_util.Actions
AMRAction
p710
(dp711
g8
I0
sg9
Nsg10
Nsg11
S'battlefield'
p712
sg13
S'b2'
p713
sg15
g16
sba(iamr_util.Actions
AMRAction
p714
(dp715
g8
I2
sg9
Nsg10
Nsg11
S'location'
p716
sg13
Nsg15
g60
sba(iamr_util.Actions
AMRAction
p717
(dp718
g8
I3
sg9
Nsg10
Nsg11
Nsg13
Nsg15
g19
sba(iamr_util.Actions
AMRAction
p719
(dp720
g8
I3
sg9
Nsg10
Nsg11
Nsg13
Nsg15
g19
sba(iamr_util.Actions
AMRAction
p721
(dp722
g8
I0
sg9
Nsg10
Nsg11
S'war-01'
p723
sg13
g174
sg15
g16
sba(iamr_util.Actions
AMRAction
p724
(dp725
g8
I1
sg9
Nsg10
Nsg11
S'concession'
p726
sg13
Nsg15
g31
sba(iamr_util.Actions
AMRAction
p727
(dp728
g8
I3
sg9
Nsg10
Nsg11
Nsg13
Nsg15
g19
sba(iamr_util.Actions
AMRAction
p729
(dp730
g8
I0
sg9
Nsg10
Nsg11
g1
(g122
g123
g124
tp731
Rp732
sg13
g732
sg15
g16
sba(iamr_util.Actions
AMRAction
p733
(dp734
g8
I0
sg9
Nsg10
Nsg11
S'direct-02'
p735
sg13
g56
sg15
g16
sba(iamr_util.Actions
AMRAction
p736
(dp737
g8
I1
sg9
Nsg10
Nsg11
S'polarity'
p738
sg13
Nsg15
g31
sba(iamr_util.Actions
AMRAction
p739
(dp740
g8
I2
sg9
Nsg10
Nsg11
S'ARG1-of'
p741
sg13
Nsg15
g60
sba(iamr_util.Actions
AMRAction
p742
(dp743
g8
I3
sg9
Nsg10
Nsg11
Nsg13
Nsg15
g19
sba(iamr_util.Actions
AMRAction
p744
(dp745
g8
I3
sg9
Nsg10
Nsg11
Nsg13
Nsg15
g19
sba(iamr_util.Actions
AMRAction
p746
(dp747
g8
I3
sg9
Nsg10
Nsg11
Nsg13
Nsg15
g19
sba(iamr_util.Actions
AMRAction
p748
(dp749
g8
I3
sg9
Nsg10
Nsg11
Nsg13
Nsg15
g19
sba(iamr_util.Actions
AMRAction
p750
(dp751
g8
I3
sg9
Nsg10
Nsg11
Nsg13
Nsg15
g19
sbaS'(w / war-01~e.13\n      :ARG0 (c / country)\n      :ARG1 (c2 / country)\n      :ARG1-of (d / direct-02~e.16 :polarity~e.15 -~e.15)\n      :concession~e.0 (f / fight-01~e.5\n            :ARG0 (COREF_c_0 / country~e.1)\n            :ARG1 (COREF_c2_0 / country~e.3)\n            :location~e.8 (b2 / battlefield~e.10)))'
p752
(dp753
(lp754
(lp755
(dp756
I1
tp757
tp758
Rp759
ag1
(g2
g3
(S'Life is never a bed of roses in any location , even more in a foreign land where there is a language barrier , different customs and no family or friends .'
p760
(lp761
(iamr_util.Actions
AMRAction
p762
(dp763
g8
I0
sg9
Nsg10
Nsg11
S'life'
p764
sg13
g216
sg15
g16
sba(iamr_util.Actions
AMRAction
p765
(dp766
g8
I3
sg9
Nsg10
Nsg11
Nsg13
Nsg15
g19
sba(iamr_util.Actions
AMRAction
p767
(dp768
g8
I0
sg9
Nsg10
Nsg11
g1
(g122
g123
g124
tp769
Rp770
sg13
g770
sg15
g16
sba(iamr_util.Actions
AMRAction
p771
(dp772
g8
I3
sg9
Nsg10
Nsg11
Nsg13
Nsg15
g19
sba(iamr_util.Actions
AMRAction
p773
(dp774
g8
I0
sg9
Nsg10
Nsg11
S'bed'
p775
sg13
g27
sg15
g16
sba(iamr_util.Actions
AMRAction
p776
(dp777
g8
I1
sg9
Nsg10
Nsg11
S'polarity'
p778
sg13
Nsg15
g31
sba(iamr_util.Actions
AMRAction
p779
(dp780
g8
I1
sg9
Nsg10
Nsg11
S'domain'
p781
sg13
Nsg15
g31
sba(iamr_util.Actions
AMRAction
p782
(dp783
g8
I3
sg9
Nsg10
Nsg11
Nsg13
Nsg15
g19
sba(iamr_util.Actions
AMRAction
p784
(dp785
g8
I0
sg9
Nsg10
Nsg11
S'rose'
p786
sg13
g222
sg15
g16
sba(iamr_util.Actions
AMRAction
p787
(dp788
g8
I2
sg9
Nsg10
Nsg11
S'consist-of'
p789
sg13
Nsg15
g60
sba(iamr_util.Actions
AMRAction
p790
(dp791
g8
I3
sg9
Nsg10
Nsg11
Nsg13
Nsg15
g19
sba(iamr_util.Actions
AMRAction
p792
(dp793
g8
I0
sg9
Nsg10
Nsg11
S'any'
p794
sg13
S'a2'
p795
sg15
g16
sba(iamr_util.Actions
AMRAction
p796
(dp797
g8
I0
sg9
Nsg10
Nsg11
S'location'
p798
sg13
S'l4'
p799
sg15
g16
sba(iamr_util.Actions
AMRAction
p800
(dp801
g8
I1
sg9
Nsg10
Nsg11
S'mod'
p802
sg13
Nsg15
g31
sba(iamr_util.Actions
AMRAction
p803
(dp804
g8
I2
sg9
Nsg10
Nsg11
S'location'
p805
sg13
Nsg15
g60
sba(iamr_util.Actions
AMRAction
p806
(dp807
g8
I3
sg9
Nsg10
Nsg11
Nsg13
Nsg15
g19
sba(iamr_util.Actions
AMRAction
p808
(dp809
g8
I0
sg9
Nsg10
Nsg11
S'even'
p810
sg13
S'e2'
p811
sg15
g16
sba(iamr_util.Actions
AMRAction
p812
(dp813
g8
I0
sg9
Nsg10
Nsg11
S'more'
p814
sg13
g39
sg15
g16
sba(iamr_util.Actions
AMRAction
p815
(dp816
g8
I1
sg9
Nsg10
Nsg11
S'mod'
p817
sg13
Nsg15
g31
sba(iamr_util.Actions
AMRAction
p818
(dp819
g8
I3
sg9
Nsg10
Nsg11
Nsg13
Nsg15
g19
sba(iamr_util.Actions
AMRAction
p820
(dp821
g8
I3
sg9
Nsg10
Nsg11
Nsg13
Nsg15
g19
sba(iamr_util.Actions
AMRAction
p822
(dp823
g8
I0
sg9
Nsg10
Nsg11
S'foreign'
p824
sg13
g349
sg15
g16
sba(iamr_util.Actions
AMRAction
p825
(dp826
g8
I0
sg9
Nsg10
Nsg11
S'land'
p827
sg13
S'l2'
p828
sg15
g16
sba(iamr_util.Actions
AMRAction
p829
(dp830
g8
I1
sg9
Nsg10
Nsg11
S'mod'
p831
sg13
Nsg15
g31
sba(iamr_util.Actions
AMRAction
p832
(dp833
g8
I1
sg9
Nsg10
Nsg11
g831
sg13
Nsg15
g31
sba(iamr_util.Actions
AMRAction
p834
(dp835
g8
I3
sg9
Nsg10
Nsg11
Nsg13
Nsg15
g19
sba(iamr_util.Actions
AMRAction
p836
(dp837
g8
I3
sg9
Nsg10
Nsg11
Nsg13
Nsg15
g19
sba(iamr_util.Actions
AMRAction
p838
(dp839
g8
I3
sg9
Nsg10
Nsg11
Nsg13
Nsg15
g19
sba(iamr_util.Actions
AMRAction
p840
(dp841
g8
I3
sg9
Nsg10
Nsg11
Nsg13
Nsg15
g19
sba(iamr_util.Actions
AMRAction
p842
(dp843
g8
I0
sg9
Nsg10
Nsg11
S'language'
p844
sg13
S'l3'
p845
sg15
g16
sba(iamr_util.Actions
AMRAction
p846
(dp847
g8
I0
sg9
Nsg10
Nsg11
S'barrier'
p848
sg13
S'b2'
p849
sg15
g16
sba(iamr_util.Actions
AMRAction
p850
(dp851
g8
I1
sg9
Nsg10
Nsg11
S'mod'
p852
sg13
Nsg15
g31
sba(iamr_util.Actions
AMRAction
p853
(dp854
g8
I3
sg9
Nsg10
Nsg11
Nsg13
Nsg15
g19
sba(iamr_util.Actions
AMRAction
p855
(dp856
g8
I0
sg9
Nsg10
Nsg11
S'differ-02'
p857
sg13
g56
sg15
g16
sba(iamr_util.Actions
AMRAction
p858
(dp859
g8
I0
sg9
Nsg10
Nsg11
S'custom'
p860
sg13
g64
sg15
g16
sba(iamr_util.Actions
AMRAction
p861
(dp862
g8
I1
sg9
Nsg10
Nsg11
S'ARG1-of'
p863
sg13
Nsg15
g31
sba(iamr_util.Actions
AMRAction
p864
(dp865
g8
I0
sg9
Nsg10
Nsg11
S'and'
p866
sg13
S'a4'
p867
sg15
g16
sba(iamr_util.Actions
AMRAction
p868
(dp869
g8
I1
sg9
Nsg10
Nsg11
S'op2'
p870
sg13
Nsg15
g31
sba(iamr_util.Actions
AMRAction
p871
(dp872
g8
I1
sg9
Nsg10
Nsg11
S'op1'
p873
sg13
Nsg15
g31
sba(iamr_util.Actions
AMRAction
p874
(dp875
g8
I0
sg9
Nsg10
Nsg11
g770
sg13
g770
sg15
g16
sba(iamr_util.Actions
AMRAction
p876
(dp877
g8
I0
sg9
Nsg10
Nsg11
S'family'
p878
sg13
S'f2'
p879
sg15
g16
sba(iamr_util.Actions
AMRAction
p880
(dp881
g8
I0
sg9
Nsg10
Nsg11
S'or'
p882
sg13
S'o'
p883
sg15
g16
sba(iamr_util.Actions
AMRAction
p884
(dp885
g8
I1
sg9
Nsg10
Nsg11
S'op1'
p886
sg13
Nsg15
g31
sba(iamr_util.Actions
AMRAction
p887
(dp888
g8
I1
sg9
Nsg10
Nsg11
S'polarity'
p889
sg13
Nsg15
g31
sba(iamr_util.Actions
AMRAction
p890
(dp891
g8
I0
sg9
Nsg10
Nsg11
S'friend'
p892
sg13
S'f3'
p893
sg15
g16
sba(iamr_util.Actions
AMRAction
p894
(dp895
g8
I2
sg9
Nsg10
Nsg11
S'op2'
p896
sg13
Nsg15
g60
sba(iamr_util.Actions
AMRAction
p897
(dp898
g8
I2
sg9
Nsg10
Nsg11
S'op3'
p899
sg13
Nsg15
g60
sba(iamr_util.Actions
AMRAction
p900
(dp901
g8
I2
sg9
Nsg10
Nsg11
S'location-of'
p902
sg13
Nsg15
g60
sba(iamr_util.Actions
AMRAction
p903
(dp904
g8
I2
sg9
Nsg10
Nsg11
g805
sg13
Nsg15
g60
sba(iamr_util.Actions
AMRAction
p905
(dp906
g8
I3
sg9
Nsg10
Nsg11
Nsg13
Nsg15
g19
sbaS'(b / bed~e.4 :polarity~e.2 -~e.2\n      :consist-of~e.5 (r / rose~e.6)\n      :domain~e.1 (l / life~e.0)\n      :time (e / ever~e.2)\n      :location~e.7 (l4 / location~e.9\n            :mod (a2 / any~e.8))\n      :location~e.17 (l2 / land~e.16\n            :mod (f / foreign~e.15)\n            :location-of~e.17 (a4 / and~e.26\n                  :op1 (b2 / barrier~e.22\n                        :mod (l3 / language~e.21))\n                  :op2 (c / custom~e.25\n                        :ARG1-of (d / differ-02~e.24))\n                  :op3 (o / or~e.29 :polarity~e.27 -~e.27\n                        :op1 (f2 / family~e.28)\n                        :op2 (f3 / friend~e.30)))\n            :mod (m / more~e.12\n                  :mod (e2 / even~e.11))))'
p907
(dp908
(lp909
(lp910
(dp911
I1
tp912
tp913
Rp914
ag1
(g2
g3
(S'There are of course many reasons as to why we lag far behind in meeting our tobacco control objectives .'
p915
(lp916
(iamr_util.Actions
AMRAction
p917
(dp918
g8
I3
sg9
Nsg10
Nsg11
Nsg13
Nsg15
g19
sba(iamr_util.Actions
AMRAction
p919
(dp920
g8
I3
sg9
Nsg10
Nsg11
Nsg13
Nsg15
g19
sba(iamr_util.Actions
AMRAction
p921
(dp922
g8
I0
sg9
Nsg10
Nsg11
S'of-course'
p923
sg13
S'o2'
p924
sg15
g16
sba(iamr_util.Actions
AMRAction
p925
(dp926
g8
I3
sg9
Nsg10
Nsg11
Nsg13
Nsg15
g19
sba(iamr_util.Actions
AMRAction
p927
(dp928
g8
I0
sg9
Nsg10
Nsg11
S'many'
p929
sg13
S'm2'
p930
sg15
g16
sba(iamr_util.Actions
AMRAction
p931
(dp932
g8
I0
sg9
Nsg10
Nsg11
S'reason'
p933
sg13
g222
sg15
g16
sba(iamr_util.Actions
AMRAction
p934
(dp935
g8
I1
sg9
Nsg10
Nsg11
S'quant'
p936
sg13
Nsg15
g31
sba(iamr_util.Actions
AMRAction
p937
(dp938
g8
I3
sg9
Nsg10
Nsg11
Nsg13
Nsg15
g19
sba(iamr_util.Actions
AMRAction
p939
(dp940
g8
I0
sg9
Nsg10
Nsg11
S'cause-01'
p941
sg13
S'c2'
p942
sg15
g16
sba(iamr_util.Actions
AMRAction
p943
(dp944
g8
I1
sg9
Nsg10
Nsg11
S'ARG0'
p945
sg13
Nsg15
g31
sba(iamr_util.Actions
AMRAction
p946
(dp947
g8
I1
sg9
Nsg10
Nsg11
S'mod'
p948
sg13
Nsg15
g31
sba(iamr_util.Actions
AMRAction
p949
(dp950
g8
I3
sg9
Nsg10
Nsg11
Nsg13
Nsg15
g19
sba(iamr_util.Actions
AMRAction
p951
(dp952
g8
I0
sg9
Nsg10
Nsg11
S'we'
p953
sg13
g174
sg15
g16
sba(iamr_util.Actions
AMRAction
p954
(dp955
g8
I0
sg9
Nsg10
Nsg11
S'lag-01'
p956
sg13
g216
sg15
g16
sba(iamr_util.Actions
AMRAction
p957
(dp958
g8
I0
sg9
Nsg10
Nsg11
S'far'
p959
sg13
g349
sg15
g16
sba(iamr_util.Actions
AMRAction
p960
(dp961
g8
I2
sg9
Nsg10
Nsg11
S'ARG2'
p962
sg13
Nsg15
g60
sba(iamr_util.Actions
AMRAction
p963
(dp964
g8
I3
sg9
Nsg10
Nsg11
Nsg13
Nsg15
g19
sba(iamr_util.Actions
AMRAction
p965
(dp966
g8
I3
sg9
Nsg10
Nsg11
Nsg13
Nsg15
g19
sba(iamr_util.Actions
AMRAction
p967
(dp968
g8
I0
sg9
Nsg10
Nsg11
S'meet-01'
p969
sg13
g39
sg15
g16
sba(iamr_util.Actions
AMRAction
p970
(dp971
g8
I4
sg9
Nsg10
Nsg11
Nsg13
Nsg15
g132
sba(iamr_util.Actions
AMRAction
p972
(dp973
g8
I1
sg9
Nsg10
Nsg11
S'ARG0'
p974
sg13
Nsg15
g31
sba(iamr_util.Actions
AMRAction
p975
(dp976
g8
I0
sg9
Nsg10
Nsg11
S'we'
p977
sg13
S'COREF_w_0'
p978
sg15
g16
sba(iamr_util.Actions
AMRAction
p979
(dp980
g8
I0
sg9
Nsg10
Nsg11
S'tobacco'
p981
sg13
S't'
p982
sg15
g16
sba(iamr_util.Actions
AMRAction
p983
(dp984
g8
I0
sg9
Nsg10
Nsg11
S'control-01'
p985
sg13
g64
sg15
g16
sba(iamr_util.Actions
AMRAction
p986
(dp987
g8
I1
sg9
Nsg10
Nsg11
S'ARG1'
p988
sg13
Nsg15
g31
sba(iamr_util.Actions
AMRAction
p989
(dp990
g8
I0
sg9
Nsg10
Nsg11
S'objective'
p991
sg13
g883
sg15
g16
sba(iamr_util.Actions
AMRAction
p992
(dp993
g8
I1
sg9
Nsg10
Nsg11
S'mod'
p994
sg13
Nsg15
g31
sba(iamr_util.Actions
AMRAction
p995
(dp996
g8
I1
sg9
Nsg10
Nsg11
S'poss'
p997
sg13
Nsg15
g31
sba(iamr_util.Actions
AMRAction
p998
(dp999
g8
I2
sg9
Nsg10
Nsg11
S'ARG1'
p1000
sg13
Nsg15
g60
sba(iamr_util.Actions
AMRAction
p1001
(dp1002
g8
I2
sg9
Nsg10
Nsg11
S'ARG0'
p1003
sg13
Nsg15
g60
sba(iamr_util.Actions
AMRAction
p1004
(dp1005
g8
I2
sg9
Nsg10
Nsg11
S'ARG1'
p1006
sg13
Nsg15
g60
sba(iamr_util.Actions
AMRAction
p1007
(dp1008
g8
I3
sg9
Nsg10
Nsg11
Nsg13
Nsg15
g19
sbaS'(c2 / cause-01~e.7,8\n      :ARG0 (r / reason~e.5\n            :quant (m2 / many~e.4))\n      :ARG1 (l / lag-01~e.10\n            :ARG0 (m / meet-01~e.14\n                  :ARG0 (w / we~e.9)\n                  :ARG1 (o / objective~e.18\n                        :mod (c / control-01~e.17\n                              :ARG1 (t / tobacco~e.16))\n                        :poss~e.15 (COREF_w_0 / we~e.15)))\n            :ARG2 (f / far~e.11))\n      :mod (o2 / of-course~e.2,3))'
p1009
(dp1010
(lp1011
(lp1012
(dp1013
I1
tp1014
tp1015
Rp1016
ag1
(g2
g3
(S"In fact , all that needs to be done is to clearly include tobacco products within the anti @-@ corruption regulations ' relevant clauses for prohibition of consumption on public funds , and it will suffice ."
p1017
(lp1018
(iamr_util.Actions
AMRAction
p1019
(dp1020
g8
I0
sg9
Nsg10
Nsg11
S'in-fact'
p1021
sg13
S'i2'
p1022
sg15
g16
sba(iamr_util.Actions
AMRAction
p1023
(dp1024
g8
I3
sg9
Nsg10
Nsg11
Nsg13
Nsg15
g19
sba(iamr_util.Actions
AMRAction
p1025
(dp1026
g8
I3
sg9
Nsg10
Nsg11
Nsg13
Nsg15
g19
sba(iamr_util.Actions
AMRAction
p1027
(dp1028
g8
I0
sg9
Nsg10
Nsg11
S'all'
p1029
sg13
g14
sg15
g16
sba(iamr_util.Actions
AMRAction
p1030
(dp1031
g8
I3
sg9
Nsg10
Nsg11
Nsg13
Nsg15
g19
sba(iamr_util.Actions
AMRAction
p1032
(dp1033
g8
I0
sg9
Nsg10
Nsg11
S'need-01'
p1034
sg13
S'n2'
p1035
sg15
g16
sba(iamr_util.Actions
AMRAction
p1036
(dp1037
g8
I1
sg9
Nsg10
Nsg11
S'mod'
p1038
sg13
Nsg15
g31
sba(iamr_util.Actions
AMRAction
p1039
(dp1040
g8
I1
sg9
Nsg10
Nsg11
g1038
sg13
Nsg15
g31
sba(iamr_util.Actions
AMRAction
p1041
(dp1042
g8
I3
sg9
Nsg10
Nsg11
Nsg13
Nsg15
g19
sba(iamr_util.Actions
AMRAction
p1043
(dp1044
g8
I3
sg9
Nsg10
Nsg11
Nsg13
Nsg15
g19
sba(iamr_util.Actions
AMRAction
p1045
(dp1046
g8
I3
sg9
Nsg10
Nsg11
Nsg13
Nsg15
g19
sba(iamr_util.Actions
AMRAction
p1047
(dp1048
g8
I3
sg9
Nsg10
Nsg11
Nsg13
Nsg15
g19
sba(iamr_util.Actions
AMRAction
p1049
(dp1050
g8
I3
sg9
Nsg10
Nsg11
Nsg13
Nsg15
g19
sba(iamr_util.Actions
AMRAction
p1051
(dp1052
g8
I0
sg9
Nsg10
Nsg11
S'clear-06'
p1053
sg13
S'c3'
p1054
sg15
g16
sba(iamr_util.Actions
AMRAction
p1055
(dp1056
g8
I0
sg9
Nsg10
Nsg11
S'include-01'
p1057
sg13
g397
sg15
g16
sba(iamr_util.Actions
AMRAction
p1058
(dp1059
g8
I1
sg9
Nsg10
Nsg11
S'ARG1-of'
p1060
sg13
Nsg15
g31
sba(iamr_util.Actions
AMRAction
p1061
(dp1062
g8
I0
sg9
Nsg10
Nsg11
S'tobacco'
p1063
sg13
g982
sg15
g16
sba(iamr_util.Actions
AMRAction
p1064
(dp1065
g8
I0
sg9
Nsg10
Nsg11
S'product'
p1066
sg13
g43
sg15
g16
sba(iamr_util.Actions
AMRAction
p1067
(dp1068
g8
I1
sg9
Nsg10
Nsg11
S'consist-of'
p1069
sg13
Nsg15
g31
sba(iamr_util.Actions
AMRAction
p1070
(dp1071
g8
I2
sg9
Nsg10
Nsg11
S'ARG1'
p1072
sg13
Nsg15
g60
sba(iamr_util.Actions
AMRAction
p1073
(dp1074
g8
I3
sg9
Nsg10
Nsg11
Nsg13
Nsg15
g19
sba(iamr_util.Actions
AMRAction
p1075
(dp1076
g8
I3
sg9
Nsg10
Nsg11
Nsg13
Nsg15
g19
sba(iamr_util.Actions
AMRAction
p1077
(dp1078
g8
I0
sg9
Nsg10
Nsg11
S'oppose-01'
p1079
sg13
g883
sg15
g16
sba(iamr_util.Actions
AMRAction
p1080
(dp1081
g8
I3
sg9
Nsg10
Nsg11
Nsg13
Nsg15
g19
sba(iamr_util.Actions
AMRAction
p1082
(dp1083
g8
I0
sg9
Nsg10
Nsg11
S'corruption'
p1084
sg13
S'c4'
p1085
sg15
g16
sba(iamr_util.Actions
AMRAction
p1086
(dp1087
g8
I2
sg9
Nsg10
Nsg11
S'ARG1'
p1088
sg13
Nsg15
g60
sba(iamr_util.Actions
AMRAction
p1089
(dp1090
g8
I0
sg9
Nsg10
Nsg11
S'regulate-01'
p1091
sg13
S'r2'
p1092
sg15
g16
sba(iamr_util.Actions
AMRAction
p1093
(dp1094
g8
I1
sg9
Nsg10
Nsg11
S'ARG0-of'
p1095
sg13
Nsg15
g31
sba(iamr_util.Actions
AMRAction
p1096
(dp1097
g8
I3
sg9
Nsg10
Nsg11
Nsg13
Nsg15
g19
sba(iamr_util.Actions
AMRAction
p1098
(dp1099
g8
I0
sg9
Nsg10
Nsg11
S'relevant-01'
p1100
sg13
g222
sg15
g16
sba(iamr_util.Actions
AMRAction
p1101
(dp1102
g8
I0
sg9
Nsg10
Nsg11
S'clause'
p1103
sg13
g64
sg15
g16
sba(iamr_util.Actions
AMRAction
p1104
(dp1105
g8
I1
sg9
Nsg10
Nsg11
S'ARG1-of'
p1106
sg13
Nsg15
g31
sba(iamr_util.Actions
AMRAction
p1107
(dp1108
g8
I1
sg9
Nsg10
Nsg11
S'part-of'
p1109
sg13
Nsg15
g31
sba(iamr_util.Actions
AMRAction
p1110
(dp1111
g8
I3
sg9
Nsg10
Nsg11
Nsg13
Nsg15
g19
sba(iamr_util.Actions
AMRAction
p1112
(dp1113
g8
I0
sg9
Nsg10
Nsg11
S'prohibit-01'
p1114
sg13
S'p2'
p1115
sg15
g16
sba(iamr_util.Actions
AMRAction
p1116
(dp1117
g8
I3
sg9
Nsg10
Nsg11
Nsg13
Nsg15
g19
sba(iamr_util.Actions
AMRAction
p1118
(dp1119
g8
I0
sg9
Nsg10
Nsg11
S'consume-01'
p1120
sg13
S'c2'
p1121
sg15
g16
sba(iamr_util.Actions
AMRAction
p1122
(dp1123
g8
I3
sg9
Nsg10
Nsg11
Nsg13
Nsg15
g19
sba(iamr_util.Actions
AMRAction
p1124
(dp1125
g8
I0
sg9
Nsg10
Nsg11
S'public'
p1126
sg13
S'p3'
p1127
sg15
g16
sba(iamr_util.Actions
AMRAction
p1128
(dp1129
g8
I0
sg9
Nsg10
Nsg11
S'fund-01'
p1130
sg13
g349
sg15
g16
sba(iamr_util.Actions
AMRAction
p1131
(dp1132
g8
I1
sg9
Nsg10
Nsg11
S'ARG0'
p1133
sg13
Nsg15
g31
sba(iamr_util.Actions
AMRAction
p1134
(dp1135
g8
I2
sg9
Nsg10
Nsg11
S'ARG1-of'
p1136
sg13
Nsg15
g60
sba(iamr_util.Actions
AMRAction
p1137
(dp1138
g8
I2
sg9
Nsg10
Nsg11
S'ARG1'
p1139
sg13
Nsg15
g60
sba(iamr_util.Actions
AMRAction
p1140
(dp1141
g8
I2
sg9
Nsg10
Nsg11
S'topic'
p1142
sg13
Nsg15
g60
sba(iamr_util.Actions
AMRAction
p1143
(dp1144
g8
I2
sg9
Nsg10
Nsg11
S'ARG2'
p1145
sg13
Nsg15
g60
sba(iamr_util.Actions
AMRAction
p1146
(dp1147
g8
I2
sg9
Nsg10
Nsg11
S'ARG1'
p1148
sg13
Nsg15
g60
sba(iamr_util.Actions
AMRAction
p1149
(dp1150
g8
I3
sg9
Nsg10
Nsg11
Nsg13
Nsg15
g19
sba(iamr_util.Actions
AMRAction
p1151
(dp1152
g8
I0
sg9
Nsg10
Nsg11
S'and'
p1153
sg13
S'a2'
p1154
sg15
g16
sba(iamr_util.Actions
AMRAction
p1155
(dp1156
g8
I1
sg9
Nsg10
Nsg11
S'op1'
p1157
sg13
Nsg15
g31
sba(iamr_util.Actions
AMRAction
p1158
(dp1159
g8
I0
sg9
Nsg10
Nsg11
S'include-01'
p1160
sg13
S'COREF_i_0'
p1161
sg15
g16
sba(iamr_util.Actions
AMRAction
p1162
(dp1163
g8
I3
sg9
Nsg10
Nsg11
Nsg13
Nsg15
g19
sba(iamr_util.Actions
AMRAction
p1164
(dp1165
g8
I0
sg9
Nsg10
Nsg11
S'suffice-01'
p1166
sg13
g77
sg15
g16
sba(iamr_util.Actions
AMRAction
p1167
(dp1168
g8
I1
sg9
Nsg10
Nsg11
S'ARG0'
p1169
sg13
Nsg15
g31
sba(iamr_util.Actions
AMRAction
p1170
(dp1171
g8
I2
sg9
Nsg10
Nsg11
S'op2'
p1172
sg13
Nsg15
g60
sba(iamr_util.Actions
AMRAction
p1173
(dp1174
g8
I3
sg9
Nsg10
Nsg11
Nsg13
Nsg15
g19
sbaS'(a2 / and~e.32\n      :op1 (n2 / need-01~e.5\n            :ARG1 (i / include-01~e.12\n                  :ARG1 (p / product~e.14\n                        :consist-of (t / tobacco~e.13))\n                  :ARG2 (c / clause~e.23\n                        :ARG1-of (r / relevant-01~e.22)\n                        :part-of~e.21 (r2 / regulate-01~e.20\n                              :ARG0-of (o / oppose-01~e.17\n                                    :ARG1 (c4 / corruption~e.19)))\n                        :topic~e.24 (p2 / prohibit-01~e.25\n                              :ARG1~e.26 (c2 / consume-01~e.27\n                                    :ARG1-of~e.28 (f / fund-01~e.30\n                                          :ARG0 (p3 / public~e.29)))))\n                  :ARG1-of (c3 / clear-06~e.11))\n            :mod (a / all~e.3)\n            :mod (i2 / in-fact~e.0,1))\n      :op2 (s / suffice-01~e.35\n            :ARG0 (COREF_i_0 / include-01~e.33)))'
p1175
(dp1176
(lp1177
(lp1178
(dp1179
I1
tp1180
tp1181
Rp1182
ag1
(g2
g3
(S'Why helped him up when he was sleeping happily ?'
p1183
(lp1184
(iamr_util.Actions
AMRAction
p1185
(dp1186
g8
I0
sg9
Nsg10
Nsg11
S'cause-01'
p1187
sg13
g64
sg15
g16
sba(iamr_util.Actions
AMRAction
p1188
(dp1189
g8
I0
sg9
Nsg10
Nsg11
S'help-01'
p1190
sg13
g105
sg15
g16
sba(iamr_util.Actions
AMRAction
p1191
(dp1192
g8
I0
sg9
Nsg10
Nsg11
S'he'
p1193
sg13
S'h2'
p1194
sg15
g16
sba(iamr_util.Actions
AMRAction
p1195
(dp1196
g8
I2
sg9
Nsg10
Nsg11
S'ARG2'
p1197
sg13
Nsg15
g60
sba(iamr_util.Actions
AMRAction
p1198
(dp1199
g8
I0
sg9
Nsg10
Nsg11
S'up'
p1200
sg13
g507
sg15
g16
sba(iamr_util.Actions
AMRAction
p1201
(dp1202
g8
I2
sg9
Nsg10
Nsg11
S'ARG1'
p1203
sg13
Nsg15
g60
sba(iamr_util.Actions
AMRAction
p1204
(dp1205
g8
I3
sg9
Nsg10
Nsg11
Nsg13
Nsg15
g19
sba(iamr_util.Actions
AMRAction
p1206
(dp1207
g8
I0
sg9
Nsg10
Nsg11
S'he'
p1208
sg13
S'COREF_h2_0'
p1209
sg15
g16
sba(iamr_util.Actions
AMRAction
p1210
(dp1211
g8
I3
sg9
Nsg10
Nsg11
Nsg13
Nsg15
g19
sba(iamr_util.Actions
AMRAction
p1212
(dp1213
g8
I0
sg9
Nsg10
Nsg11
S'sleep-01'
p1214
sg13
g77
sg15
g16
sba(iamr_util.Actions
AMRAction
p1215
(dp1216
g8
I1
sg9
Nsg10
Nsg11
S'ARG0'
p1217
sg13
Nsg15
g31
sba(iamr_util.Actions
AMRAction
p1218
(dp1219
g8
I0
sg9
Nsg10
Nsg11
S'happy'
p1220
sg13
S'h3'
p1221
sg15
g16
sba(iamr_util.Actions
AMRAction
p1222
(dp1223
g8
I2
sg9
Nsg10
Nsg11
S'manner'
p1224
sg13
Nsg15
g60
sba(iamr_util.Actions
AMRAction
p1225
(dp1226
g8
I2
sg9
Nsg10
Nsg11
S'time'
p1227
sg13
Nsg15
g60
sba(iamr_util.Actions
AMRAction
p1228
(dp1229
g8
I2
sg9
Nsg10
Nsg11
S'ARG1'
p1230
sg13
Nsg15
g60
sba(iamr_util.Actions
AMRAction
p1231
(dp1232
g8
I3
sg9
Nsg10
Nsg11
Nsg13
Nsg15
g19
sbaS'(c / cause-01~e.0\n      :ARG0~e.0 (a / amr-unknown~e.0)\n      :ARG1 (h / help-01~e.1\n            :ARG1 (u / up~e.3)\n            :ARG2 (h2 / he~e.2)\n            :time~e.4 (s / sleep-01~e.7\n                  :ARG0 (COREF_h2_0 / he~e.5)\n                  :manner~e.8 (h3 / happy~e.8))))'
p1233
(dp1234
(lp1235
(lp1236
(dp1237
I1
tp1238
tp1239
Rp1240
ag1
(g2
g3
(S'Let the law show its might~'
p1241
(lp1242
(iamr_util.Actions
AMRAction
p1243
(dp1244
g8
I3
sg9
Nsg10
Nsg11
Nsg13
Nsg15
g19
sba(iamr_util.Actions
AMRAction
p1245
(dp1246
g8
I3
sg9
Nsg10
Nsg11
Nsg13
Nsg15
g19
sba(iamr_util.Actions
AMRAction
p1247
(dp1248
g8
I0
sg9
Nsg10
Nsg11
S'law'
p1249
sg13
S'l2'
p1250
sg15
g16
sba(iamr_util.Actions
AMRAction
p1251
(dp1252
g8
I0
sg9
Nsg10
Nsg11
S'show-01'
p1253
sg13
g77
sg15
g16
sba(iamr_util.Actions
AMRAction
p1254
(dp1255
g8
I1
sg9
Nsg10
Nsg11
S'ARG0'
p1256
sg13
Nsg15
g31
sba(iamr_util.Actions
AMRAction
p1257
(dp1258
g8
I3
sg9
Nsg10
Nsg11
Nsg13
Nsg15
g19
sba(iamr_util.Actions
AMRAction
p1259
(dp1260
g8
I3
sg9
Nsg10
Nsg11
Nsg13
Nsg15
g19
sbaS'(s / show-01~e.3 :mode~e.0 imperative~e.0\n      :ARG0 (l2 / law~e.2)\n      :ARG1 (m / might\n            :poss (COREF_l2_0 / law)))'
p1261
(dp1262
(lp1263
(lp1264
(dp1265
I1
tp1266
tp1267
Rp1268
ag1
(g2
g3
(S'I come to support , support it'
p1269
(lp1270
(iamr_util.Actions
AMRAction
p1271
(dp1272
g8
I0
sg9
Nsg10
Nsg11
g397
sg13
g397
sg15
g16
sba(iamr_util.Actions
AMRAction
p1273
(dp1274
g8
I0
sg9
Nsg10
Nsg11
S'come-01'
p1275
sg13
g64
sg15
g16
sba(iamr_util.Actions
AMRAction
p1276
(dp1277
g8
I3
sg9
Nsg10
Nsg11
Nsg13
Nsg15
g19
sba(iamr_util.Actions
AMRAction
p1278
(dp1279
g8
I0
sg9
Nsg10
Nsg11
S'support-01'
p1280
sg13
g77
sg15
g16
sba(iamr_util.Actions
AMRAction
p1281
(dp1282
g8
I4
sg9
Nsg10
Nsg11
Nsg13
Nsg15
g132
sba(iamr_util.Actions
AMRAction
p1283
(dp1284
g8
I1
sg9
Nsg10
Nsg11
S'ARG0'
p1285
sg13
Nsg15
g31
sba(iamr_util.Actions
AMRAction
p1286
(dp1287
g8
I3
sg9
Nsg10
Nsg11
Nsg13
Nsg15
g19
sba(iamr_util.Actions
AMRAction
p1288
(dp1289
g8
I3
sg9
Nsg10
Nsg11
Nsg13
Nsg15
g19
sba(iamr_util.Actions
AMRAction
p1290
(dp1291
g8
I0
sg9
Nsg10
Nsg11
S'it'
p1292
sg13
S'i2'
p1293
sg15
g16
sba(iamr_util.Actions
AMRAction
p1294
(dp1295
g8
I2
sg9
Nsg10
Nsg11
S'ARG1'
p1296
sg13
Nsg15
g60
sba(iamr_util.Actions
AMRAction
p1297
(dp1298
g8
I2
sg9
Nsg10
Nsg11
S'purpose'
p1299
sg13
Nsg15
g60
sbaS'(c / come-01~e.1\n      :ARG1 (COREF_i_0 / i)\n      :purpose (s / support-01~e.3,5\n            :ARG0 (i / i~e.0)\n            :ARG1 (i2 / it~e.6)))'
p1300
(dp1301
(lp1302
(lp1303
(dp1304
I1
tp1305
tp1306
Rp1307
ag1
(g2
g3
(S"when the country needs me , I 'll be compelled by my sense of righteousness"
p1308
(lp1309
(iamr_util.Actions
AMRAction
p1310
(dp1311
g8
I3
sg9
Nsg10
Nsg11
Nsg13
Nsg15
g19
sba(iamr_util.Actions
AMRAction
p1312
(dp1313
g8
I3
sg9
Nsg10
Nsg11
Nsg13
Nsg15
g19
sba(iamr_util.Actions
AMRAction
p1314
(dp1315
g8
I0
sg9
Nsg10
Nsg11
S'country'
p1316
sg13
S'c2'
p1317
sg15
g16
sba(iamr_util.Actions
AMRAction
p1318
(dp1319
g8
I0
sg9
Nsg10
Nsg11
S'need-01'
p1320
sg13
g362
sg15
g16
sba(iamr_util.Actions
AMRAction
p1321
(dp1322
g8
I1
sg9
Nsg10
Nsg11
S'ARG0'
p1323
sg13
Nsg15
g31
sba(iamr_util.Actions
AMRAction
p1324
(dp1325
g8
I0
sg9
Nsg10
Nsg11
g397
sg13
S'COREF_i_1'
p1326
sg15
g16
sba(iamr_util.Actions
AMRAction
p1327
(dp1328
g8
I2
sg9
Nsg10
Nsg11
S'ARG1'
p1329
sg13
Nsg15
g60
sba(iamr_util.Actions
AMRAction
p1330
(dp1331
g8
I3
sg9
Nsg10
Nsg11
Nsg13
Nsg15
g19
sba(iamr_util.Actions
AMRAction
p1332
(dp1333
g8
I3
sg9
Nsg10
Nsg11
Nsg13
Nsg15
g19
sba(iamr_util.Actions
AMRAction
p1334
(dp1335
g8
I3
sg9
Nsg10
Nsg11
Nsg13
Nsg15
g19
sba(iamr_util.Actions
AMRAction
p1336
(dp1337
g8
I3
sg9
Nsg10
Nsg11
Nsg13
Nsg15
g19
sba(iamr_util.Actions
AMRAction
p1338
(dp1339
g8
I0
sg9
Nsg10
Nsg11
S'compel-01'
p1340
sg13
g64
sg15
g16
sba(iamr_util.Actions
AMRAction
p1341
(dp1342
g8
I1
sg9
Nsg10
Nsg11
S'time'
p1343
sg13
Nsg15
g31
sba(iamr_util.Actions
AMRAction
p1344
(dp1345
g8
I3
sg9
Nsg10
Nsg11
Nsg13
Nsg15
g19
sba(iamr_util.Actions
AMRAction
p1346
(dp1347
g8
I0
sg9
Nsg10
Nsg11
g397
sg13
S'COREF_i_0'
p1348
sg15
g16
sba(iamr_util.Actions
AMRAction
p1349
(dp1350
g8
I0
sg9
Nsg10
Nsg11
S'sense-01'
p1351
sg13
g77
sg15
g16
sba(iamr_util.Actions
AMRAction
p1352
(dp1353
g8
I1
sg9
Nsg10
Nsg11
S'ARG0'
p1354
sg13
Nsg15
g31
sba(iamr_util.Actions
AMRAction
p1355
(dp1356
g8
I3
sg9
Nsg10
Nsg11
Nsg13
Nsg15
g19
sba(iamr_util.Actions
AMRAction
p1357
(dp1358
g8
I0
sg9
Nsg10
Nsg11
S'righteousness'
p1359
sg13
g222
sg15
g16
sba(iamr_util.Actions
AMRAction
p1360
(dp1361
g8
I2
sg9
Nsg10
Nsg11
S'ARG1'
p1362
sg13
Nsg15
g60
sba(iamr_util.Actions
AMRAction
p1363
(dp1364
g8
I2
sg9
Nsg10
Nsg11
S'ARG0'
p1365
sg13
Nsg15
g60
sbaS'(c / compel-01~e.9\n      :ARG0~e.10 (s / sense-01~e.12\n            :ARG0~e.11 (COREF_i_0 / i~e.11)\n            :ARG1~e.13 (r / righteousness~e.14))\n      :ARG1 (i / i)\n      :time~e.0 (n / need-01~e.3\n            :ARG0 (c2 / country~e.2)\n            :ARG1 (COREF_i_1 / i~e.4,5,6)))'
p1366
(dp1367
(lp1368
(lp1369
(dp1370
I1
tp1371
tp1372
Rp1373
ag1
(g2
g3
(S'Tolerance is certainly not fear , and sincerity does not have to be cowardice .'
p1374
(lp1375
(iamr_util.Actions
AMRAction
p1376
(dp1377
g8
I0
sg9
Nsg10
Nsg11
S'tolerance'
p1378
sg13
g982
sg15
g16
sba(iamr_util.Actions
AMRAction
p1379
(dp1380
g8
I3
sg9
Nsg10
Nsg11
Nsg13
Nsg15
g19
sba(iamr_util.Actions
AMRAction
p1381
(dp1382
g8
I0
sg9
Nsg10
Nsg11
S'certain'
p1383
sg13
g64
sg15
g16
sba(iamr_util.Actions
AMRAction
p1384
(dp1385
g8
I0
sg9
Nsg10
Nsg11
g1
(g122
g123
g124
tp1386
Rp1387
sg13
g1387
sg15
g16
sba(iamr_util.Actions
AMRAction
p1388
(dp1389
g8
I0
sg9
Nsg10
Nsg11
S'fear'
p1390
sg13
g349
sg15
g16
sba(iamr_util.Actions
AMRAction
p1391
(dp1392
g8
I1
sg9
Nsg10
Nsg11
S'polarity'
p1393
sg13
Nsg15
g31
sba(iamr_util.Actions
AMRAction
p1394
(dp1395
g8
I1
sg9
Nsg10
Nsg11
S'manner'
p1396
sg13
Nsg15
g31
sba(iamr_util.Actions
AMRAction
p1397
(dp1398
g8
I1
sg9
Nsg10
Nsg11
S'domain'
p1399
sg13
Nsg15
g31
sba(iamr_util.Actions
AMRAction
p1400
(dp1401
g8
I3
sg9
Nsg10
Nsg11
Nsg13
Nsg15
g19
sba(iamr_util.Actions
AMRAction
p1402
(dp1403
g8
I0
sg9
Nsg10
Nsg11
S'and'
p1404
sg13
g14
sg15
g16
sba(iamr_util.Actions
AMRAction
p1405
(dp1406
g8
I1
sg9
Nsg10
Nsg11
S'op1'
p1407
sg13
Nsg15
g31
sba(iamr_util.Actions
AMRAction
p1408
(dp1409
g8
I0
sg9
Nsg10
Nsg11
S'sincerity'
p1410
sg13
g77
sg15
g16
sba(iamr_util.Actions
AMRAction
p1411
(dp1412
g8
I3
sg9
Nsg10
Nsg11
Nsg13
Nsg15
g19
sba(iamr_util.Actions
AMRAction
p1413
(dp1414
g8
I0
sg9
Nsg10
Nsg11
g1387
sg13
g1387
sg15
g16
sba(iamr_util.Actions
AMRAction
p1415
(dp1416
g8
I0
sg9
Nsg10
Nsg11
S'obligate-01'
p1417
sg13
g883
sg15
g16
sba(iamr_util.Actions
AMRAction
p1418
(dp1419
g8
I1
sg9
Nsg10
Nsg11
S'polarity'
p1420
sg13
Nsg15
g31
sba(iamr_util.Actions
AMRAction
p1421
(dp1422
g8
I3
sg9
Nsg10
Nsg11
Nsg13
Nsg15
g19
sba(iamr_util.Actions
AMRAction
p1423
(dp1424
g8
I3
sg9
Nsg10
Nsg11
Nsg13
Nsg15
g19
sba(iamr_util.Actions
AMRAction
p1425
(dp1426
g8
I0
sg9
Nsg10
Nsg11
S'cowardice'
p1427
sg13
S'c2'
p1428
sg15
g16
sba(iamr_util.Actions
AMRAction
p1429
(dp1430
g8
I4
sg9
Nsg10
Nsg11
Nsg13
Nsg15
g132
sba(iamr_util.Actions
AMRAction
p1431
(dp1432
g8
I1
sg9
Nsg10
Nsg11
S'domain'
p1433
sg13
Nsg15
g31
sba(iamr_util.Actions
AMRAction
p1434
(dp1435
g8
I2
sg9
Nsg10
Nsg11
S'ARG2'
p1436
sg13
Nsg15
g60
sba(iamr_util.Actions
AMRAction
p1437
(dp1438
g8
I2
sg9
Nsg10
Nsg11
S'op2'
p1439
sg13
Nsg15
g60
sba(iamr_util.Actions
AMRAction
p1440
(dp1441
g8
I3
sg9
Nsg10
Nsg11
Nsg13
Nsg15
g19
sbaS'(a / and~e.6\n      :op1 (f / fear~e.4 :polarity~e.3 -~e.3\n            :manner~e.2 (c / certain~e.2)\n            :domain~e.1 (t / tolerance~e.0))\n      :op2 (o / obligate-01~e.10,11 :polarity~e.9 -~e.9\n            :ARG2 (c2 / cowardice~e.13\n                  :domain~e.12 (s / sincerity~e.7))))'
p1442
(dp1443
(lp1444
(lp1445
(dp1446
I1
tp1447
tp1448
Rp1449
ag1
(g2
g3
(S'Bitterly lost our Ryukyu Islands'
p1450
(lp1451
(iamr_util.Actions
AMRAction
p1452
(dp1453
g8
I0
sg9
Nsg10
Nsg11
S'bitter'
p1454
sg13
g27
sg15
g16
sba(iamr_util.Actions
AMRAction
p1455
(dp1456
g8
I0
sg9
Nsg10
Nsg11
S'lose-02'
p1457
sg13
g216
sg15
g16
sba(iamr_util.Actions
AMRAction
p1458
(dp1459
g8
I1
sg9
Nsg10
Nsg11
S'manner'
p1460
sg13
Nsg15
g31
sba(iamr_util.Actions
AMRAction
p1461
(dp1462
g8
I0
sg9
Nsg10
Nsg11
S'we'
p1463
sg13
g174
sg15
g16
sba(iamr_util.Actions
AMRAction
p1464
(dp1465
g8
I2
sg9
Nsg10
Nsg11
S'ARG0'
p1466
sg13
Nsg15
g60
sba(iamr_util.Actions
AMRAction
p1467
(dp1468
g8
I3
sg9
Nsg10
Nsg11
Nsg13
Nsg15
g19
sba(iamr_util.Actions
AMRAction
p1469
(dp1470
g8
I3
sg9
Nsg10
Nsg11
Nsg13
Nsg15
g19
sbaS'(l / lose-02~e.1\n      :ARG0~e.2 (w / we~e.2)\n      :ARG1 (i / island\n            :poss (COREF_w_0 / we))\n      :manner~e.0 (b / bitter~e.0))'
p1471
(dp1472
(lp1473
(lp1474
(dp1475
I1
tp1476
tp1477
Rp1478
ag1
(g2
g3
(S'Both take what they need'
p1479
(lp1480
(iamr_util.Actions
AMRAction
p1481
(dp1482
g8
I0
sg9
Nsg10
Nsg11
S'both'
p1483
sg13
g27
sg15
g16
sba(iamr_util.Actions
AMRAction
p1484
(dp1485
g8
I0
sg9
Nsg10
Nsg11
S'take-01'
p1486
sg13
g982
sg15
g16
sba(iamr_util.Actions
AMRAction
p1487
(dp1488
g8
I1
sg9
Nsg10
Nsg11
S'ARG0'
p1489
sg13
Nsg15
g31
sba(iamr_util.Actions
AMRAction
p1490
(dp1491
g8
I0
sg9
Nsg10
Nsg11
S'thing'
p1492
sg13
S't2'
p1493
sg15
g16
sba(iamr_util.Actions
AMRAction
p1494
(dp1495
g8
I0
sg9
Nsg10
Nsg11
S'both'
p1496
sg13
S'COREF_b_0'
p1497
sg15
g16
sba(iamr_util.Actions
AMRAction
p1498
(dp1499
g8
I0
sg9
Nsg10
Nsg11
S'need-01'
p1500
sg13
g362
sg15
g16
sba(iamr_util.Actions
AMRAction
p1501
(dp1502
g8
I1
sg9
Nsg10
Nsg11
S'ARG0'
p1503
sg13
Nsg15
g31
sba(iamr_util.Actions
AMRAction
p1504
(dp1505
g8
I2
sg9
Nsg10
Nsg11
S'ARG1-of'
p1506
sg13
Nsg15
g60
sba(iamr_util.Actions
AMRAction
p1507
(dp1508
g8
I2
sg9
Nsg10
Nsg11
S'ARG1'
p1509
sg13
Nsg15
g60
sbaS'(t / take-01~e.1\n      :ARG0 (b / both~e.0)\n      :ARG1 (t2 / thing~e.2\n            :ARG1-of (n / need-01~e.4\n                  :ARG0 (COREF_b_0 / both~e.3))))'
p1510
(dp1511
(lp1512
(lp1513
(dp1514
I1
tp1515
tp1516
Rp1517
a.