(lp0
ccopy_reg
_reconstructor
p1
(cTrainingDataExtractor
TrainingData
p2
c__builtin__
tuple
p3
(S'Without a peaceful environment , any construction undertaking would be impossible to discuss .'
p4
(lp5
(iamr_util.Actions
AMRAction
p6
(dp7
S'index'
p8
I0
sS'key2'
p9
NsS'label2'
p10
NsS'label'
p11
g1
(cutil
Polarity
p12
c__builtin__
str
p13
S'-'
p14
tp15
Rp16
sS'key'
p17
g16
sS'action'
p18
S'SH'
p19
sba(iamr_util.Actions
AMRAction
p20
(dp21
g8
I3
sg9
Nsg10
Nsg11
Nsg17
Nsg18
S'DN'
p22
sba(iamr_util.Actions
AMRAction
p23
(dp24
g8
I0
sg9
Nsg10
Nsg11
S'peaceful'
p25
sg17
S'p2'
p26
sg18
g19
sba(iamr_util.Actions
AMRAction
p27
(dp28
g8
I0
sg9
Nsg10
Nsg11
S'environment'
p29
sg17
S'e'
p30
sg18
g19
sba(iamr_util.Actions
AMRAction
p31
(dp32
g8
I1
sg9
Nsg10
Nsg11
S'mod'
p33
sg17
Nsg18
S'RL'
p34
sba(iamr_util.Actions
AMRAction
p35
(dp36
g8
I1
sg9
Nsg10
Nsg11
S'polarity'
p37
sg17
Nsg18
g34
sba(iamr_util.Actions
AMRAction
p38
(dp39
g8
I3
sg9
Nsg10
Nsg11
Nsg17
Nsg18
g22
sba(iamr_util.Actions
AMRAction
p40
(dp41
g8
I0
sg9
Nsg10
Nsg11
S'any'
p42
sg17
S'a'
p43
sg18
g19
sba(iamr_util.Actions
AMRAction
p44
(dp45
g8
I0
sg9
Nsg10
Nsg11
S'construct-01'
p46
sg17
S'c'
p47
sg18
g19
sba(iamr_util.Actions
AMRAction
p48
(dp49
g8
I0
sg9
Nsg10
Nsg11
S'undertake-01'
p50
sg17
S'u'
p51
sg18
g19
sba(iamr_util.Actions
AMRAction
p52
(dp53
g8
I1
sg9
Nsg10
Nsg11
S'ARG1'
p54
sg17
Nsg18
g34
sba(iamr_util.Actions
AMRAction
p55
(dp56
g8
I1
sg9
Nsg10
Nsg11
S'mod'
p57
sg17
Nsg18
g34
sba(iamr_util.Actions
AMRAction
p58
(dp59
g8
I3
sg9
Nsg10
Nsg11
Nsg17
Nsg18
g22
sba(iamr_util.Actions
AMRAction
p60
(dp61
g8
I3
sg9
Nsg10
Nsg11
Nsg17
Nsg18
g22
sba(iamr_util.Actions
AMRAction
p62
(dp63
g8
I0
sg9
Nsg10
Nsg11
S'possible-01'
p64
sg17
S'p'
p65
sg18
g19
sba(iamr_util.Actions
AMRAction
p66
(dp67
g8
I4
sg9
Nsg10
Nsg11
Nsg17
Nsg18
S'SW'
p68
sba(iamr_util.Actions
AMRAction
p69
(dp70
g8
I1
sg9
Nsg10
Nsg11
S'condition'
p71
sg17
Nsg18
g34
sba(iamr_util.Actions
AMRAction
p72
(dp73
g8
I3
sg9
Nsg10
Nsg11
Nsg17
Nsg18
g22
sba(iamr_util.Actions
AMRAction
p74
(dp75
g8
I0
sg9
Nsg10
Nsg11
S'discuss-01'
p76
sg17
S'd'
p77
sg18
g19
sba(iamr_util.Actions
AMRAction
p78
(dp79
g8
I4
sg9
Nsg10
Nsg11
Nsg17
Nsg18
g68
sba(iamr_util.Actions
AMRAction
p80
(dp81
g8
I1
sg9
Nsg10
Nsg11
S'ARG1'
p82
sg17
Nsg18
g34
sba(iamr_util.Actions
AMRAction
p83
(dp84
g8
I2
sg9
Nsg10
Nsg11
S'ARG1'
p85
sg17
Nsg18
S'RR'
p86
sba(iamr_util.Actions
AMRAction
p87
(dp88
g8
I3
sg9
Nsg10
Nsg11
Nsg17
Nsg18
g22
sbaS'(p / possible-01~e.10 :polarity~e.0 -~e.10\n      :ARG1 (d / discuss-01~e.12\n            :ARG1 (u / undertake-01~e.7\n                  :ARG1 (c / construct-01~e.6)\n                  :mod (a / any~e.5)))\n      :condition (e / environment~e.3 :polarity~e.0 -~e.0\n            :mod (p2 / peaceful~e.2)))'
p89
(dp90
(lp91
(lp92
(dp93
I1
tp94
tp95
Rp96
ag1
(g2
g3
(S'However , at the beginning of this year , concerned parties announced that , for projects that had foreign invested , and which were in fields encouraged by China such as the new , high technology industry , infrastructure , etc. , the country would implement certain preferential taxation policies .'
p97
(lp98
(iamr_util.Actions
AMRAction
p99
(dp100
g8
I0
sg9
Nsg10
Nsg11
S'contrast-01'
p101
sg17
S'c3'
p102
sg18
g19
sba(iamr_util.Actions
AMRAction
p103
(dp104
g8
I3
sg9
Nsg10
Nsg11
Nsg17
Nsg18
g22
sba(iamr_util.Actions
AMRAction
p105
(dp106
g8
I3
sg9
Nsg10
Nsg11
Nsg17
Nsg18
g22
sba(iamr_util.Actions
AMRAction
p107
(dp108
g8
I3
sg9
Nsg10
Nsg11
Nsg17
Nsg18
g22
sba(iamr_util.Actions
AMRAction
p109
(dp110
g8
I0
sg9
Nsg10
Nsg11
S'begin-01'
p111
sg17
S'b'
p112
sg18
g19
sba(iamr_util.Actions
AMRAction
p113
(dp114
g8
I3
sg9
Nsg10
Nsg11
Nsg17
Nsg18
g22
sba(iamr_util.Actions
AMRAction
p115
(dp116
g8
I0
sg9
Nsg10
Nsg11
S'this'
p117
sg17
S't2'
p118
sg18
g19
sba(iamr_util.Actions
AMRAction
p119
(dp120
g8
I0
sg9
Nsg10
Nsg11
S'year'
p121
sg17
S'y'
p122
sg18
g19
sba(iamr_util.Actions
AMRAction
p123
(dp124
g8
I1
sg9
Nsg10
Nsg11
S'mod'
p125
sg17
Nsg18
g34
sba(iamr_util.Actions
AMRAction
p126
(dp127
g8
I2
sg9
Nsg10
Nsg11
S'ARG1'
p128
sg17
Nsg18
g86
sba(iamr_util.Actions
AMRAction
p129
(dp130
g8
I3
sg9
Nsg10
Nsg11
Nsg17
Nsg18
g22
sba(iamr_util.Actions
AMRAction
p131
(dp132
g8
I0
sg9
Nsg10
Nsg11
S'concern-02'
p133
sg17
S'c2'
p134
sg18
g19
sba(iamr_util.Actions
AMRAction
p135
(dp136
g8
I0
sg9
Nsg10
Nsg11
S'party'
p137
sg17
S'p4'
p138
sg18
g19
sba(iamr_util.Actions
AMRAction
p139
(dp140
g8
I1
sg9
Nsg10
Nsg11
S'ARG0-of'
p141
sg17
Nsg18
g34
sba(iamr_util.Actions
AMRAction
p142
(dp143
g8
I0
sg9
Nsg10
Nsg11
S'announce-01'
p144
sg17
g43
sg18
g19
sba(iamr_util.Actions
AMRAction
p145
(dp146
g8
I1
sg9
Nsg10
Nsg11
S'ARG0'
p147
sg17
Nsg18
g34
sba(iamr_util.Actions
AMRAction
p148
(dp149
g8
I1
sg9
Nsg10
Nsg11
S'time'
p150
sg17
Nsg18
g34
sba(iamr_util.Actions
AMRAction
p151
(dp152
g8
I3
sg9
Nsg10
Nsg11
Nsg17
Nsg18
g22
sba(iamr_util.Actions
AMRAction
p153
(dp154
g8
I3
sg9
Nsg10
Nsg11
Nsg17
Nsg18
g22
sba(iamr_util.Actions
AMRAction
p155
(dp156
g8
I3
sg9
Nsg10
Nsg11
Nsg17
Nsg18
g22
sba(iamr_util.Actions
AMRAction
p157
(dp158
g8
I0
sg9
Nsg10
Nsg11
S'project'
p159
sg17
g65
sg18
g19
sba(iamr_util.Actions
AMRAction
p160
(dp161
g8
I3
sg9
Nsg10
Nsg11
Nsg17
Nsg18
g22
sba(iamr_util.Actions
AMRAction
p162
(dp163
g8
I3
sg9
Nsg10
Nsg11
Nsg17
Nsg18
g22
sba(iamr_util.Actions
AMRAction
p164
(dp165
g8
I0
sg9
Nsg10
Nsg11
S'foreign'
p166
sg17
S'f3'
p167
sg18
g19
sba(iamr_util.Actions
AMRAction
p168
(dp169
g8
I0
sg9
Nsg10
Nsg11
S'invest-01'
p170
sg17
S'i2'
p171
sg18
g19
sba(iamr_util.Actions
AMRAction
p172
(dp173
g8
I1
sg9
Nsg10
Nsg11
S'mod'
p174
sg17
Nsg18
g34
sba(iamr_util.Actions
AMRAction
p175
(dp176
g8
I2
sg9
Nsg10
Nsg11
S'ARG2-of'
p177
sg17
Nsg18
g86
sba(iamr_util.Actions
AMRAction
p178
(dp179
g8
I3
sg9
Nsg10
Nsg11
Nsg17
Nsg18
g22
sba(iamr_util.Actions
AMRAction
p180
(dp181
g8
I0
sg9
Nsg10
Nsg11
S'and'
p182
sg17
S'a2'
p183
sg18
g19
sba(iamr_util.Actions
AMRAction
p184
(dp185
g8
I3
sg9
Nsg10
Nsg11
Nsg17
Nsg18
g22
sba(iamr_util.Actions
AMRAction
p186
(dp187
g8
I3
sg9
Nsg10
Nsg11
Nsg17
Nsg18
g22
sba(iamr_util.Actions
AMRAction
p188
(dp189
g8
I3
sg9
Nsg10
Nsg11
Nsg17
Nsg18
g22
sba(iamr_util.Actions
AMRAction
p190
(dp191
g8
I0
sg9
Nsg10
Nsg11
S'field'
p192
sg17
S'f2'
p193
sg18
g19
sba(iamr_util.Actions
AMRAction
p194
(dp195
g8
I0
sg9
Nsg10
Nsg11
S'encourage-01'
p196
sg17
g30
sg18
g19
sba(iamr_util.Actions
AMRAction
p197
(dp198
g8
I3
sg9
Nsg10
Nsg11
Nsg17
Nsg18
g22
sba(iamr_util.Actions
AMRAction
p199
(dp200
g8
I0
sg9
Nsg10
Nsg11
S'country'
p201
sg17
S'COREF_c_0'
p202
sg18
g19
sba(iamr_util.Actions
AMRAction
p203
(dp204
g8
I2
sg9
Nsg10
Nsg11
S'ARG0'
p205
sg17
Nsg18
g86
sba(iamr_util.Actions
AMRAction
p206
(dp207
g8
I2
sg9
Nsg10
Nsg11
S'ARG1-of'
p208
sg17
Nsg18
g86
sba(iamr_util.Actions
AMRAction
p209
(dp210
g8
I3
sg9
Nsg10
Nsg11
Nsg17
Nsg18
g22
sba(iamr_util.Actions
AMRAction
p211
(dp212
g8
I3
sg9
Nsg10
Nsg11
Nsg17
Nsg18
g22
sba(iamr_util.Actions
AMRAction
p213
(dp214
g8
I3
sg9
Nsg10
Nsg11
Nsg17
Nsg18
g22
sba(iamr_util.Actions
AMRAction
p215
(dp216
g8
I0
sg9
Nsg10
Nsg11
S'new'
p217
sg17
S'n'
p218
sg18
g19
sba(iamr_util.Actions
AMRAction
p219
(dp220
g8
I3
sg9
Nsg10
Nsg11
Nsg17
Nsg18
g22
sba(iamr_util.Actions
AMRAction
p221
(dp222
g8
I0
sg9
Nsg10
Nsg11
S'high-02'
p223
sg17
S'h'
p224
sg18
g19
sba(iamr_util.Actions
AMRAction
p225
(dp226
g8
I0
sg9
Nsg10
Nsg11
S'technology'
p227
sg17
S't4'
p228
sg18
g19
sba(iamr_util.Actions
AMRAction
p229
(dp230
g8
I1
sg9
Nsg10
Nsg11
S'ARG1-of'
p231
sg17
Nsg18
g34
sba(iamr_util.Actions
AMRAction
p232
(dp233
g8
I0
sg9
Nsg10
Nsg11
S'industry'
p234
sg17
S'i4'
p235
sg18
g19
sba(iamr_util.Actions
AMRAction
p236
(dp237
g8
I1
sg9
Nsg10
Nsg11
S'mod'
p238
sg17
Nsg18
g34
sba(iamr_util.Actions
AMRAction
p239
(dp240
g8
I1
sg9
Nsg10
Nsg11
g238
sg17
Nsg18
g34
sba(iamr_util.Actions
AMRAction
p241
(dp242
g8
I4
sg9
Nsg10
Nsg11
Nsg17
Nsg18
g68
sba(iamr_util.Actions
AMRAction
p243
(dp244
g8
I2
sg9
Nsg10
Nsg11
S'op1'
p245
sg17
Nsg18
g86
sba(iamr_util.Actions
AMRAction
p246
(dp247
g8
I3
sg9
Nsg10
Nsg11
Nsg17
Nsg18
g22
sba(iamr_util.Actions
AMRAction
p248
(dp249
g8
I0
sg9
Nsg10
Nsg11
S'infrastructure'
p250
sg17
S'i3'
p251
sg18
g19
sba(iamr_util.Actions
AMRAction
p252
(dp253
g8
I2
sg9
Nsg10
Nsg11
S'op2'
p254
sg17
Nsg18
g86
sba(iamr_util.Actions
AMRAction
p255
(dp256
g8
I3
sg9
Nsg10
Nsg11
Nsg17
Nsg18
g22
sba(iamr_util.Actions
AMRAction
p257
(dp258
g8
I0
sg9
Nsg10
Nsg11
S'et-cetera'
p259
sg17
S'e2'
p260
sg18
g19
sba(iamr_util.Actions
AMRAction
p261
(dp262
g8
I2
sg9
Nsg10
Nsg11
S'op3'
p263
sg17
Nsg18
g86
sba(iamr_util.Actions
AMRAction
p264
(dp265
g8
I2
sg9
Nsg10
Nsg11
S'example'
p266
sg17
Nsg18
g86
sba(iamr_util.Actions
AMRAction
p267
(dp268
g8
I2
sg9
Nsg10
Nsg11
S'location'
p269
sg17
Nsg18
g86
sba(iamr_util.Actions
AMRAction
p270
(dp271
g8
I3
sg9
Nsg10
Nsg11
Nsg17
Nsg18
g22
sba(iamr_util.Actions
AMRAction
p272
(dp273
g8
I3
sg9
Nsg10
Nsg11
Nsg17
Nsg18
g22
sba(iamr_util.Actions
AMRAction
p274
(dp275
g8
I0
sg9
Nsg10
Nsg11
S'country'
p276
sg17
g47
sg18
g19
sba(iamr_util.Actions
AMRAction
p277
(dp278
g8
I3
sg9
Nsg10
Nsg11
Nsg17
Nsg18
g22
sba(iamr_util.Actions
AMRAction
p279
(dp280
g8
I0
sg9
Nsg10
Nsg11
S'implement-01'
p281
sg17
S'i'
p282
sg18
g19
sba(iamr_util.Actions
AMRAction
p283
(dp284
g8
I1
sg9
Nsg10
Nsg11
S'ARG0'
p285
sg17
Nsg18
g34
sba(iamr_util.Actions
AMRAction
p286
(dp287
g8
I1
sg9
Nsg10
Nsg11
S'beneficiary'
p288
sg17
Nsg18
g34
sba(iamr_util.Actions
AMRAction
p289
(dp290
g8
I0
sg9
Nsg10
Nsg11
S'certain'
p291
sg17
S'c5'
p292
sg18
g19
sba(iamr_util.Actions
AMRAction
p293
(dp294
g8
I0
sg9
Nsg10
Nsg11
S'prefer-01'
p295
sg17
S'p3'
p296
sg18
g19
sba(iamr_util.Actions
AMRAction
p297
(dp298
g8
I0
sg9
Nsg10
Nsg11
S'tax-01'
p299
sg17
S't'
p300
sg18
g19
sba(iamr_util.Actions
AMRAction
p301
(dp302
g8
I1
sg9
Nsg10
Nsg11
S'manner'
p303
sg17
Nsg18
g34
sba(iamr_util.Actions
AMRAction
p304
(dp305
g8
I0
sg9
Nsg10
Nsg11
S'policy'
p306
sg17
S'p2'
p307
sg18
g19
sba(iamr_util.Actions
AMRAction
p308
(dp309
g8
I1
sg9
Nsg10
Nsg11
S'mod'
p310
sg17
Nsg18
g34
sba(iamr_util.Actions
AMRAction
p311
(dp312
g8
I1
sg9
Nsg10
Nsg11
g310
sg17
Nsg18
g34
sba(iamr_util.Actions
AMRAction
p313
(dp314
g8
I2
sg9
Nsg10
Nsg11
S'ARG1'
p315
sg17
Nsg18
g86
sba(iamr_util.Actions
AMRAction
p316
(dp317
g8
I2
sg9
Nsg10
Nsg11
S'ARG1'
p318
sg17
Nsg18
g86
sba(iamr_util.Actions
AMRAction
p319
(dp320
g8
I2
sg9
Nsg10
Nsg11
S'ARG2'
p321
sg17
Nsg18
g86
sba(iamr_util.Actions
AMRAction
p322
(dp323
g8
I3
sg9
Nsg10
Nsg11
Nsg17
Nsg18
g22
sbaS'(c3 / contrast-01~e.0\n      :ARG2~e.2 (a / announce-01~e.11\n            :ARG0 (p4 / party~e.10\n                  :ARG0-of (c2 / concern-02~e.9))\n            :ARG1~e.14 (i / implement-01~e.45\n                  :ARG0 (c / country~e.43)\n                  :ARG1 (p2 / policy~e.49\n                        :mod (t / tax-01~e.48\n                              :manner (p3 / prefer-01~e.47))\n                        :mod (c5 / certain~e.46))\n                  :beneficiary (p / project~e.15\n                        :location (f2 / field~e.25\n                              :ARG1-of (e / encourage-01~e.26\n                                    :ARG0~e.27 (COREF_c_0 / country~e.28))\n                              :example~e.29,30 (a2 / and~e.21,40\n                                    :op1 (i4 / industry~e.36\n                                          :mod (n / new~e.32)\n                                          :mod (t4 / technology~e.35\n                                                :ARG1-of (h / high-02~e.34)))\n                                    :op2 (i3 / infrastructure~e.38)\n                                    :op3~e.40 (e2 / et-cetera~e.40)))\n                        :ARG2-of (i2 / invest-01~e.19\n                              :mod (f3 / foreign~e.18))))\n            :time (b / begin-01~e.4\n                  :ARG1~e.5 (y / year~e.7\n                        :mod (t2 / this~e.6)))))'
p324
(dp325
(lp326
(lp327
(dp328
I1
tp329
tp330
Rp331
ag1
(g2
g3
(S'When mosquitoes feed , they suck the mold element from the cells of plants into their bodies .'
p332
(lp333
(iamr_util.Actions
AMRAction
p334
(dp335
g8
I3
sg9
Nsg10
Nsg11
Nsg17
Nsg18
g22
sba(iamr_util.Actions
AMRAction
p336
(dp337
g8
I0
sg9
Nsg10
Nsg11
S'mosquito'
p338
sg17
S'm'
p339
sg18
g19
sba(iamr_util.Actions
AMRAction
p340
(dp341
g8
I0
sg9
Nsg10
Nsg11
S'feed-01'
p342
sg17
S'f'
p343
sg18
g19
sba(iamr_util.Actions
AMRAction
p344
(dp345
g8
I3
sg9
Nsg10
Nsg11
Nsg17
Nsg18
g22
sba(iamr_util.Actions
AMRAction
p346
(dp347
g8
I0
sg9
Nsg10
Nsg11
S'mosquito'
p348
sg17
S'COREF_m_1'
p349
sg18
g19
sba(iamr_util.Actions
AMRAction
p350
(dp351
g8
I2
sg9
Nsg10
Nsg11
S'ARG2'
p352
sg17
Nsg18
g86
sba(iamr_util.Actions
AMRAction
p353
(dp354
g8
I0
sg9
Nsg10
Nsg11
S'suck-01'
p355
sg17
S's'
p356
sg18
g19
sba(iamr_util.Actions
AMRAction
p357
(dp358
g8
I1
sg9
Nsg10
Nsg11
S'time'
p359
sg17
Nsg18
g34
sba(iamr_util.Actions
AMRAction
p360
(dp361
g8
I1
sg9
Nsg10
Nsg11
S'ARG0'
p362
sg17
Nsg18
g34
sba(iamr_util.Actions
AMRAction
p363
(dp364
g8
I3
sg9
Nsg10
Nsg11
Nsg17
Nsg18
g22
sba(iamr_util.Actions
AMRAction
p365
(dp366
g8
I0
sg9
Nsg10
Nsg11
S'mold'
p367
sg17
S'm2'
p368
sg18
g19
sba(iamr_util.Actions
AMRAction
p369
(dp370
g8
I0
sg9
Nsg10
Nsg11
S'element'
p371
sg17
g30
sg18
g19
sba(iamr_util.Actions
AMRAction
p372
(dp373
g8
I1
sg9
Nsg10
Nsg11
S'mod'
p374
sg17
Nsg18
g34
sba(iamr_util.Actions
AMRAction
p375
(dp376
g8
I2
sg9
Nsg10
Nsg11
S'ARG1'
p377
sg17
Nsg18
g86
sba(iamr_util.Actions
AMRAction
p378
(dp379
g8
I3
sg9
Nsg10
Nsg11
Nsg17
Nsg18
g22
sba(iamr_util.Actions
AMRAction
p380
(dp381
g8
I3
sg9
Nsg10
Nsg11
Nsg17
Nsg18
g22
sba(iamr_util.Actions
AMRAction
p382
(dp383
g8
I0
sg9
Nsg10
Nsg11
S'cell'
p384
sg17
g47
sg18
g19
sba(iamr_util.Actions
AMRAction
p385
(dp386
g8
I3
sg9
Nsg10
Nsg11
Nsg17
Nsg18
g22
sba(iamr_util.Actions
AMRAction
p387
(dp388
g8
I0
sg9
Nsg10
Nsg11
S'plant'
p389
sg17
g65
sg18
g19
sba(iamr_util.Actions
AMRAction
p390
(dp391
g8
I2
sg9
Nsg10
Nsg11
S'part-of'
p392
sg17
Nsg18
g86
sba(iamr_util.Actions
AMRAction
p393
(dp394
g8
I2
sg9
Nsg10
Nsg11
S'ARG2'
p395
sg17
Nsg18
g86
sba(iamr_util.Actions
AMRAction
p396
(dp397
g8
I3
sg9
Nsg10
Nsg11
Nsg17
Nsg18
g22
sba(iamr_util.Actions
AMRAction
p398
(dp399
g8
I0
sg9
Nsg10
Nsg11
S'mosquito'
p400
sg17
S'COREF_m_0'
p401
sg18
g19
sba(iamr_util.Actions
AMRAction
p402
(dp403
g8
I0
sg9
Nsg10
Nsg11
S'body'
p404
sg17
g112
sg18
g19
sba(iamr_util.Actions
AMRAction
p405
(dp406
g8
I1
sg9
Nsg10
Nsg11
S'poss'
p407
sg17
Nsg18
g34
sba(iamr_util.Actions
AMRAction
p408
(dp409
g8
I2
sg9
Nsg10
Nsg11
S'destination'
p410
sg17
Nsg18
g86
sba(iamr_util.Actions
AMRAction
p411
(dp412
g8
I3
sg9
Nsg10
Nsg11
Nsg17
Nsg18
g22
sbaS'(s / suck-01~e.5\n      :ARG0 (m / mosquito~e.1)\n      :ARG1 (e / element~e.8\n            :mod (m2 / mold~e.7))\n      :ARG2~e.9 (c / cell~e.11\n            :part-of~e.12 (p / plant~e.13))\n      :destination~e.14 (b / body~e.16\n            :poss~e.15 (COREF_m_0 / mosquito~e.15))\n      :time~e.0 (f / feed-01~e.2\n            :ARG2 (COREF_m_1 / mosquito~e.4)))'
p413
(dp414
(lp415
(lp416
(dp417
I1
tp418
tp419
Rp420
ag1
(g2
g3
(S'Taken by Weidong Liu and Guozhong Hou .'
p421
(lp422
(iamr_util.Actions
AMRAction
p423
(dp424
g8
I3
sg9
Nsg10
Nsg11
Nsg17
Nsg18
g22
sba(iamr_util.Actions
AMRAction
p425
(dp426
g8
I3
sg9
Nsg10
Nsg11
Nsg17
Nsg18
g22
sba(iamr_util.Actions
AMRAction
p427
(dp428
g8
I3
sg9
Nsg10
Nsg11
Nsg17
Nsg18
g22
sba(iamr_util.Actions
AMRAction
p429
(dp430
g8
I3
sg9
Nsg10
Nsg11
Nsg17
Nsg18
g22
sba(iamr_util.Actions
AMRAction
p431
(dp432
g8
I0
sg9
Nsg10
Nsg11
S'and'
p433
sg17
g43
sg18
g19
sba(iamr_util.Actions
AMRAction
p434
(dp435
g8
I3
sg9
Nsg10
Nsg11
Nsg17
Nsg18
g22
sba(iamr_util.Actions
AMRAction
p436
(dp437
g8
I3
sg9
Nsg10
Nsg11
Nsg17
Nsg18
g22
sba(iamr_util.Actions
AMRAction
p438
(dp439
g8
I3
sg9
Nsg10
Nsg11
Nsg17
Nsg18
g22
sbaS'(b / byline-91\n      :ARG2 (a / and~e.4\n            :op1 (p3 / person)\n            :op2 (p4 / person)))'
p440
(dp441
(lp442
(lp443
(dp444
I1
tp445
tp446
Rp447
ag1
(g2
g3
(S'This will be the last chance for this cargo spaceship to dock with the orbital station because the fuel on the spaceship is already very limited .'
p448
(lp449
(iamr_util.Actions
AMRAction
p450
(dp451
g8
I0
sg9
Nsg10
Nsg11
S'this'
p452
sg17
g300
sg18
g19
sba(iamr_util.Actions
AMRAction
p453
(dp454
g8
I3
sg9
Nsg10
Nsg11
Nsg17
Nsg18
g22
sba(iamr_util.Actions
AMRAction
p455
(dp456
g8
I3
sg9
Nsg10
Nsg11
Nsg17
Nsg18
g22
sba(iamr_util.Actions
AMRAction
p457
(dp458
g8
I3
sg9
Nsg10
Nsg11
Nsg17
Nsg18
g22
sba(iamr_util.Actions
AMRAction
p459
(dp460
g8
I0
sg9
Nsg10
Nsg11
S'last'
p461
sg17
S'l'
p462
sg18
g19
sba(iamr_util.Actions
AMRAction
p463
(dp464
g8
I0
sg9
Nsg10
Nsg11
S'chance-02'
p465
sg17
g47
sg18
g19
sba(iamr_util.Actions
AMRAction
p466
(dp467
g8
I1
sg9
Nsg10
Nsg11
S'mod'
p468
sg17
Nsg18
g34
sba(iamr_util.Actions
AMRAction
p469
(dp470
g8
I1
sg9
Nsg10
Nsg11
S'domain'
p471
sg17
Nsg18
g34
sba(iamr_util.Actions
AMRAction
p472
(dp473
g8
I3
sg9
Nsg10
Nsg11
Nsg17
Nsg18
g22
sba(iamr_util.Actions
AMRAction
p474
(dp475
g8
I0
sg9
Nsg10
Nsg11
S'this'
p476
sg17
S't2'
p477
sg18
g19
sba(iamr_util.Actions
AMRAction
p478
(dp479
g8
I0
sg9
Nsg10
Nsg11
S'cargo'
p480
sg17
S'c2'
p481
sg18
g19
sba(iamr_util.Actions
AMRAction
p482
(dp483
g8
I0
sg9
Nsg10
Nsg11
S'spaceship'
p484
sg17
g356
sg18
g19
sba(iamr_util.Actions
AMRAction
p485
(dp486
g8
I1
sg9
Nsg10
Nsg11
S'mod'
p487
sg17
Nsg18
g34
sba(iamr_util.Actions
AMRAction
p488
(dp489
g8
I1
sg9
Nsg10
Nsg11
g487
sg17
Nsg18
g34
sba(iamr_util.Actions
AMRAction
p490
(dp491
g8
I3
sg9
Nsg10
Nsg11
Nsg17
Nsg18
g22
sba(iamr_util.Actions
AMRAction
p492
(dp493
g8
I0
sg9
Nsg10
Nsg11
S'dock-01'
p494
sg17
g77
sg18
g19
sba(iamr_util.Actions
AMRAction
p495
(dp496
g8
I1
sg9
Nsg10
Nsg11
S'ARG1'
p497
sg17
Nsg18
g34
sba(iamr_util.Actions
AMRAction
p498
(dp499
g8
I3
sg9
Nsg10
Nsg11
Nsg17
Nsg18
g22
sba(iamr_util.Actions
AMRAction
p500
(dp501
g8
I3
sg9
Nsg10
Nsg11
Nsg17
Nsg18
g22
sba(iamr_util.Actions
AMRAction
p502
(dp503
g8
I0
sg9
Nsg10
Nsg11
S'orbit-01'
p504
sg17
S'o'
p505
sg18
g19
sba(iamr_util.Actions
AMRAction
p506
(dp507
g8
I0
sg9
Nsg10
Nsg11
S'station'
p508
sg17
S's2'
p509
sg18
g19
sba(iamr_util.Actions
AMRAction
p510
(dp511
g8
I1
sg9
Nsg10
Nsg11
S'ARG0-of'
p512
sg17
Nsg18
g34
sba(iamr_util.Actions
AMRAction
p513
(dp514
g8
I2
sg9
Nsg10
Nsg11
S'ARG2'
p515
sg17
Nsg18
g86
sba(iamr_util.Actions
AMRAction
p516
(dp517
g8
I2
sg9
Nsg10
Nsg11
S'ARG1'
p518
sg17
Nsg18
g86
sba(iamr_util.Actions
AMRAction
p519
(dp520
g8
I0
sg9
Nsg10
Nsg11
S'cause-01'
p521
sg17
S'c3'
p522
sg18
g19
sba(iamr_util.Actions
AMRAction
p523
(dp524
g8
I3
sg9
Nsg10
Nsg11
Nsg17
Nsg18
g22
sba(iamr_util.Actions
AMRAction
p525
(dp526
g8
I0
sg9
Nsg10
Nsg11
S'fuel'
p527
sg17
g343
sg18
g19
sba(iamr_util.Actions
AMRAction
p528
(dp529
g8
I3
sg9
Nsg10
Nsg11
Nsg17
Nsg18
g22
sba(iamr_util.Actions
AMRAction
p530
(dp531
g8
I3
sg9
Nsg10
Nsg11
Nsg17
Nsg18
g22
sba(iamr_util.Actions
AMRAction
p532
(dp533
g8
I0
sg9
Nsg10
Nsg11
S'spaceship'
p534
sg17
S'COREF_s_0'
p535
sg18
g19
sba(iamr_util.Actions
AMRAction
p536
(dp537
g8
I2
sg9
Nsg10
Nsg11
S'location'
p538
sg17
Nsg18
g86
sba(iamr_util.Actions
AMRAction
p539
(dp540
g8
I3
sg9
Nsg10
Nsg11
Nsg17
Nsg18
g22
sba(iamr_util.Actions
AMRAction
p541
(dp542
g8
I0
sg9
Nsg10
Nsg11
S'already'
p543
sg17
g43
sg18
g19
sba(iamr_util.Actions
AMRAction
p544
(dp545
g8
I0
sg9
Nsg10
Nsg11
S'very'
p546
sg17
S'v'
p547
sg18
g19
sba(iamr_util.Actions
AMRAction
p548
(dp549
g8
I0
sg9
Nsg10
Nsg11
S'limit-01'
p550
sg17
S'l2'
p551
sg18
g19
sba(iamr_util.Actions
AMRAction
p552
(dp553
g8
I1
sg9
Nsg10
Nsg11
S'degree'
p554
sg17
Nsg18
g34
sba(iamr_util.Actions
AMRAction
p555
(dp556
g8
I1
sg9
Nsg10
Nsg11
S'time'
p557
sg17
Nsg18
g34
sba(iamr_util.Actions
AMRAction
p558
(dp559
g8
I1
sg9
Nsg10
Nsg11
S'ARG1'
p560
sg17
Nsg18
g34
sba(iamr_util.Actions
AMRAction
p561
(dp562
g8
I2
sg9
Nsg10
Nsg11
S'ARG0'
p563
sg17
Nsg18
g86
sba(iamr_util.Actions
AMRAction
p564
(dp565
g8
I2
sg9
Nsg10
Nsg11
S'ARG1-of'
p566
sg17
Nsg18
g86
sba(iamr_util.Actions
AMRAction
p567
(dp568
g8
I3
sg9
Nsg10
Nsg11
Nsg17
Nsg18
g22
sbaS'(c / chance-02~e.5\n      :ARG1 (d / dock-01~e.11\n            :ARG1 (s / spaceship~e.9\n                  :mod (c2 / cargo~e.8)\n                  :mod (t2 / this~e.7))\n            :ARG2~e.12 (s2 / station~e.15\n                  :ARG0-of (o / orbit-01~e.14)))\n      :mod (l / last~e.4)\n      :domain~e.2,22 (t / this~e.0,7)\n      :ARG1-of (c3 / cause-01~e.16\n            :ARG0 (l2 / limit-01~e.25\n                  :ARG1 (f / fuel~e.18\n                        :location~e.19 (COREF_s_0 / spaceship~e.21))\n                  :degree (v / very~e.24)\n                  :time (a / already~e.23))))'
p569
(dp570
(lp571
(lp572
(dp573
I1
tp574
tp575
Rp576
a.