(lp0
ccopy_reg
_reconstructor
p1
(cTrainingDataExtractor
TrainingData
p2
c__builtin__
tuple
p3
(S'Of course this is a no - brainer , but this is actually a major problem faced by me and many other people whenever we discuss economic issues or economic phenomena .'
p4
(lp5
(iamr_util.Actions
AMRAction
p6
(dp7
S'index'
p8
I0
sS'key2'
p9
NsS'label2'
p10
NsS'label'
p11
S'of-course'
p12
sS'key'
p13
S'o'
p14
sS'action'
p15
S'SH'
p16
sba(iamr_util.Actions
AMRAction
p17
(dp18
g8
I3
sg9
Nsg10
Nsg11
Nsg13
Nsg15
S'DN'
p19
sba(iamr_util.Actions
AMRAction
p20
(dp21
g8
I0
sg9
Nsg10
Nsg11
S'this'
p22
sg13
S't'
p23
sg15
g16
sba(iamr_util.Actions
AMRAction
p24
(dp25
g8
I3
sg9
Nsg10
Nsg11
Nsg13
Nsg15
g19
sba(iamr_util.Actions
AMRAction
p26
(dp27
g8
I3
sg9
Nsg10
Nsg11
Nsg13
Nsg15
g19
sba(iamr_util.Actions
AMRAction
p28
(dp29
g8
I0
sg9
Nsg10
Nsg11
S'no-brainer'
p30
sg13
S'n'
p31
sg15
g16
sba(iamr_util.Actions
AMRAction
p32
(dp33
g8
I1
sg9
Nsg10
Nsg11
S'domain'
p34
sg13
Nsg15
S'RL'
p35
sba(iamr_util.Actions
AMRAction
p36
(dp37
g8
I1
sg9
Nsg10
Nsg11
S'mod'
p38
sg13
Nsg15
g35
sba(iamr_util.Actions
AMRAction
p39
(dp40
g8
I3
sg9
Nsg10
Nsg11
Nsg13
Nsg15
g19
sba(iamr_util.Actions
AMRAction
p41
(dp42
g8
I3
sg9
Nsg10
Nsg11
Nsg13
Nsg15
g19
sba(iamr_util.Actions
AMRAction
p43
(dp44
g8
I3
sg9
Nsg10
Nsg11
Nsg13
Nsg15
g19
sba(iamr_util.Actions
AMRAction
p45
(dp46
g8
I0
sg9
Nsg10
Nsg11
S'contrast-01'
p47
sg13
S'c'
p48
sg15
g16
sba(iamr_util.Actions
AMRAction
p49
(dp50
g8
I1
sg9
Nsg10
Nsg11
S'ARG1'
p51
sg13
Nsg15
g35
sba(iamr_util.Actions
AMRAction
p52
(dp53
g8
I0
sg9
Nsg10
Nsg11
S'this'
p54
sg13
S't2'
p55
sg15
g16
sba(iamr_util.Actions
AMRAction
p56
(dp57
g8
I3
sg9
Nsg10
Nsg11
Nsg13
Nsg15
g19
sba(iamr_util.Actions
AMRAction
p58
(dp59
g8
I0
sg9
Nsg10
Nsg11
S'actual'
p60
sg13
S'a'
p61
sg15
g16
sba(iamr_util.Actions
AMRAction
p62
(dp63
g8
I3
sg9
Nsg10
Nsg11
Nsg13
Nsg15
g19
sba(iamr_util.Actions
AMRAction
p64
(dp65
g8
I0
sg9
Nsg10
Nsg11
S'major-02'
p66
sg13
S'm'
p67
sg15
g16
sba(iamr_util.Actions
AMRAction
p68
(dp69
g8
I0
sg9
Nsg10
Nsg11
S'problem'
p70
sg13
S'p'
p71
sg15
g16
sba(iamr_util.Actions
AMRAction
p72
(dp73
g8
I1
sg9
Nsg10
Nsg11
S'ARG1-of'
p74
sg13
Nsg15
g35
sba(iamr_util.Actions
AMRAction
p75
(dp76
g8
I1
sg9
Nsg10
Nsg11
S'mod'
p77
sg13
Nsg15
g35
sba(iamr_util.Actions
AMRAction
p78
(dp79
g8
I1
sg9
Nsg10
Nsg11
S'domain'
p80
sg13
Nsg15
g35
sba(iamr_util.Actions
AMRAction
p81
(dp82
g8
I0
sg9
Nsg10
Nsg11
S'face-01'
p83
sg13
S'f'
p84
sg15
g16
sba(iamr_util.Actions
AMRAction
p85
(dp86
g8
I3
sg9
Nsg10
Nsg11
Nsg13
Nsg15
g19
sba(iamr_util.Actions
AMRAction
p87
(dp88
g8
I0
sg9
Nsg10
Nsg11
S'i'
p89
sg13
g89
sg15
g16
sba(iamr_util.Actions
AMRAction
p90
(dp91
g8
I0
sg9
Nsg10
Nsg11
S'and'
p92
sg13
S'a2'
p93
sg15
g16
sba(iamr_util.Actions
AMRAction
p94
(dp95
g8
I1
sg9
Nsg10
Nsg11
S'op1'
p96
sg13
Nsg15
g35
sba(iamr_util.Actions
AMRAction
p97
(dp98
g8
I0
sg9
Nsg10
Nsg11
S'many'
p99
sg13
S'm2'
p100
sg15
g16
sba(iamr_util.Actions
AMRAction
p101
(dp102
g8
I0
sg9
Nsg10
Nsg11
S'other'
p103
sg13
S'o2'
p104
sg15
g16
sba(iamr_util.Actions
AMRAction
p105
(dp106
g8
I0
sg9
Nsg10
Nsg11
S'person'
p107
sg13
S'p2'
p108
sg15
g16
sba(iamr_util.Actions
AMRAction
p109
(dp110
g8
I1
sg9
Nsg10
Nsg11
S'mod'
p111
sg13
Nsg15
g35
sba(iamr_util.Actions
AMRAction
p112
(dp113
g8
I1
sg9
Nsg10
Nsg11
S'quant'
p114
sg13
Nsg15
g35
sba(iamr_util.Actions
AMRAction
p115
(dp116
g8
I2
sg9
Nsg10
Nsg11
S'op2'
p117
sg13
Nsg15
S'RR'
p118
sba(iamr_util.Actions
AMRAction
p119
(dp120
g8
I2
sg9
Nsg10
Nsg11
S'ARG0'
p121
sg13
Nsg15
g118
sba(iamr_util.Actions
AMRAction
p122
(dp123
g8
I3
sg9
Nsg10
Nsg11
Nsg13
Nsg15
g19
sba(iamr_util.Actions
AMRAction
p124
(dp125
g8
I0
sg9
Nsg10
Nsg11
S'and'
p126
sg13
S'COREF_a2_0'
p127
sg15
g16
sba(iamr_util.Actions
AMRAction
p128
(dp129
g8
I0
sg9
Nsg10
Nsg11
S'discuss-01'
p130
sg13
S'd'
p131
sg15
g16
sba(iamr_util.Actions
AMRAction
p132
(dp133
g8
I1
sg9
Nsg10
Nsg11
S'ARG0'
p134
sg13
Nsg15
g35
sba(iamr_util.Actions
AMRAction
p135
(dp136
g8
I0
sg9
Nsg10
Nsg11
S'economy'
p137
sg13
S'e'
p138
sg15
g16
sba(iamr_util.Actions
AMRAction
p139
(dp140
g8
I0
sg9
Nsg10
Nsg11
S'issue-02'
p141
sg13
S'i2'
p142
sg15
g16
sba(iamr_util.Actions
AMRAction
p143
(dp144
g8
I1
sg9
Nsg10
Nsg11
S'ARG0'
p145
sg13
Nsg15
g35
sba(iamr_util.Actions
AMRAction
p146
(dp147
g8
I0
sg9
Nsg10
Nsg11
S'or'
p148
sg13
S'o3'
p149
sg15
g16
sba(iamr_util.Actions
AMRAction
p150
(dp151
g8
I1
sg9
Nsg10
Nsg11
S'op1'
p152
sg13
Nsg15
g35
sba(iamr_util.Actions
AMRAction
p153
(dp154
g8
I0
sg9
Nsg10
Nsg11
S'economy'
p155
sg13
S'COREF_e_0'
p156
sg15
g16
sba(iamr_util.Actions
AMRAction
p157
(dp158
g8
I0
sg9
Nsg10
Nsg11
S'phenomenon'
p159
sg13
S'p3'
p160
sg15
g16
sba(iamr_util.Actions
AMRAction
p161
(dp162
g8
I1
sg9
Nsg10
Nsg11
S'mod'
p163
sg13
Nsg15
g35
sba(iamr_util.Actions
AMRAction
p164
(dp165
g8
I2
sg9
Nsg10
Nsg11
S'op2'
p166
sg13
Nsg15
g118
sba(iamr_util.Actions
AMRAction
p167
(dp168
g8
I2
sg9
Nsg10
Nsg11
S'ARG1'
p169
sg13
Nsg15
g118
sba(iamr_util.Actions
AMRAction
p170
(dp171
g8
I2
sg9
Nsg10
Nsg11
S'time'
p172
sg13
Nsg15
g118
sba(iamr_util.Actions
AMRAction
p173
(dp174
g8
I2
sg9
Nsg10
Nsg11
g74
sg13
Nsg15
g118
sba(iamr_util.Actions
AMRAction
p175
(dp176
g8
I2
sg9
Nsg10
Nsg11
S'ARG2'
p177
sg13
Nsg15
g118
sba(iamr_util.Actions
AMRAction
p178
(dp179
g8
I3
sg9
Nsg10
Nsg11
Nsg13
Nsg15
g19
sbaS'(c / contrast-01~e.9\n      :ARG1 (n / no-brainer~e.5,7\n            :domain~e.3 (t / this~e.2)\n            :mod (o / of-course~e.0,1))\n      :ARG2 (p / problem~e.15\n            :domain~e.11 (t2 / this~e.10)\n            :mod (a / actual~e.12)\n            :ARG1-of (m / major-02~e.14)\n            :ARG1-of (f / face-01~e.16\n                  :ARG0~e.17 (a2 / and~e.19\n                        :op1 (i / i~e.18)\n                        :op2 (p2 / person~e.22\n                              :quant (m2 / many~e.20)\n                              :mod (o2 / other~e.21)))\n                  :time~e.23 (d / discuss-01~e.25\n                        :ARG0 (COREF_a2_0 / and~e.24)\n                        :ARG1 (o3 / or~e.28\n                              :op1 (i2 / issue-02~e.27\n                                    :ARG0 (e / economy~e.26))\n                              :op2 (p3 / phenomenon~e.30\n                                    :mod (COREF_e_0 / economy~e.29)))))))'
p180
(dp181
(lp182
(lp183
(dp184
I1
tp185
tp186
Rp187
ag1
(g2
g3
(S"the most I 've ever paid for in my life ."
p188
(lp189
(iamr_util.Actions
AMRAction
p190
(dp191
g8
I3
sg9
Nsg10
Nsg11
Nsg13
Nsg15
g19
sba(iamr_util.Actions
AMRAction
p192
(dp193
g8
I0
sg9
Nsg10
Nsg11
S'most'
p194
sg13
g67
sg15
g16
sba(iamr_util.Actions
AMRAction
p195
(dp196
g8
I0
sg9
Nsg10
Nsg11
g89
sg13
g89
sg15
g16
sba(iamr_util.Actions
AMRAction
p197
(dp198
g8
I3
sg9
Nsg10
Nsg11
Nsg13
Nsg15
g19
sba(iamr_util.Actions
AMRAction
p199
(dp200
g8
I0
sg9
Nsg10
Nsg11
S'ever'
p201
sg13
g138
sg15
g16
sba(iamr_util.Actions
AMRAction
p202
(dp203
g8
I0
sg9
Nsg10
Nsg11
S'pay-01'
p204
sg13
g71
sg15
g16
sba(iamr_util.Actions
AMRAction
p205
(dp206
g8
I1
sg9
Nsg10
Nsg11
S'time'
p207
sg13
Nsg15
g35
sba(iamr_util.Actions
AMRAction
p208
(dp209
g8
I1
sg9
Nsg10
Nsg11
S'ARG0'
p210
sg13
Nsg15
g35
sba(iamr_util.Actions
AMRAction
p211
(dp212
g8
I1
sg9
Nsg10
Nsg11
S'degree'
p213
sg13
Nsg15
g35
sba(iamr_util.Actions
AMRAction
p214
(dp215
g8
I3
sg9
Nsg10
Nsg11
Nsg13
Nsg15
g19
sba(iamr_util.Actions
AMRAction
p216
(dp217
g8
I3
sg9
Nsg10
Nsg11
Nsg13
Nsg15
g19
sba(iamr_util.Actions
AMRAction
p218
(dp219
g8
I0
sg9
Nsg10
Nsg11
g89
sg13
S'COREF_i_0'
p220
sg15
g16
sba(iamr_util.Actions
AMRAction
p221
(dp222
g8
I0
sg9
Nsg10
Nsg11
S'life'
p223
sg13
S'l'
p224
sg15
g16
sba(iamr_util.Actions
AMRAction
p225
(dp226
g8
I1
sg9
Nsg10
Nsg11
S'poss'
p227
sg13
Nsg15
g35
sba(iamr_util.Actions
AMRAction
p228
(dp229
g8
I2
sg9
Nsg10
Nsg11
g207
sg13
Nsg15
g118
sba(iamr_util.Actions
AMRAction
p230
(dp231
g8
I3
sg9
Nsg10
Nsg11
Nsg13
Nsg15
g19
sbaS'(p / pay-01~e.5\n      :ARG0 (i / i~e.2)\n      :time (e / ever~e.4)\n      :degree (m / most~e.1)\n      :time~e.7 (l / life~e.9\n            :poss~e.8 (COREF_i_0 / i~e.8)))'
p232
(dp233
(lp234
(lp235
(dp236
I1
tp237
tp238
Rp239
ag1
(g2
g3
(S'and you would keep some more of your money .'
p240
(lp241
(iamr_util.Actions
AMRAction
p242
(dp243
g8
I0
sg9
Nsg10
Nsg11
S'and'
p244
sg13
g61
sg15
g16
sba(iamr_util.Actions
AMRAction
p245
(dp246
g8
I0
sg9
Nsg10
Nsg11
S'you'
p247
sg13
S'y'
p248
sg15
g16
sba(iamr_util.Actions
AMRAction
p249
(dp250
g8
I3
sg9
Nsg10
Nsg11
Nsg13
Nsg15
g19
sba(iamr_util.Actions
AMRAction
p251
(dp252
g8
I0
sg9
Nsg10
Nsg11
S'keep-01'
p253
sg13
S'k'
p254
sg15
g16
sba(iamr_util.Actions
AMRAction
p255
(dp256
g8
I1
sg9
Nsg10
Nsg11
S'ARG0'
p257
sg13
Nsg15
g35
sba(iamr_util.Actions
AMRAction
p258
(dp259
g8
I0
sg9
Nsg10
Nsg11
S'some'
p260
sg13
S's'
p261
sg15
g16
sba(iamr_util.Actions
AMRAction
p262
(dp263
g8
I0
sg9
Nsg10
Nsg11
S'more'
p264
sg13
S'm2'
p265
sg15
g16
sba(iamr_util.Actions
AMRAction
p266
(dp267
g8
I2
sg9
Nsg10
Nsg11
S'quant'
p268
sg13
Nsg15
g118
sba(iamr_util.Actions
AMRAction
p269
(dp270
g8
I3
sg9
Nsg10
Nsg11
Nsg13
Nsg15
g19
sba(iamr_util.Actions
AMRAction
p271
(dp272
g8
I0
sg9
Nsg10
Nsg11
S'you'
p273
sg13
S'COREF_y_0'
p274
sg15
g16
sba(iamr_util.Actions
AMRAction
p275
(dp276
g8
I0
sg9
Nsg10
Nsg11
S'money'
p277
sg13
g67
sg15
g16
sba(iamr_util.Actions
AMRAction
p278
(dp279
g8
I1
sg9
Nsg10
Nsg11
S'poss'
p280
sg13
Nsg15
g35
sba(iamr_util.Actions
AMRAction
p281
(dp282
g8
I1
sg9
Nsg10
Nsg11
S'quant'
p283
sg13
Nsg15
g35
sba(iamr_util.Actions
AMRAction
p284
(dp285
g8
I2
sg9
Nsg10
Nsg11
S'ARG1'
p286
sg13
Nsg15
g118
sba(iamr_util.Actions
AMRAction
p287
(dp288
g8
I2
sg9
Nsg10
Nsg11
S'op2'
p289
sg13
Nsg15
g118
sba(iamr_util.Actions
AMRAction
p290
(dp291
g8
I3
sg9
Nsg10
Nsg11
Nsg13
Nsg15
g19
sbaS'(a / and~e.0\n      :op2 (k / keep-01~e.3\n            :ARG0 (y / you~e.1)\n            :ARG1 (m / money~e.8\n                  :poss~e.7 (COREF_y_0 / you~e.7)\n                  :quant~e.6 (s / some~e.4\n                        :quant (m2 / more~e.5)))))'
p292
(dp293
(lp294
(lp295
(dp296
I1
tp297
tp298
Rp299
ag1
(g2
g3
(S"Did n't she fight Robert Moses because he thought he had too much control over other peoples ' lives ?"
p300
(lp301
(iamr_util.Actions
AMRAction
p302
(dp303
g8
I3
sg9
Nsg10
Nsg11
Nsg13
Nsg15
g19
sba(iamr_util.Actions
AMRAction
p304
(dp305
g8
I0
sg9
Nsg10
Nsg11
g1
(cutil
Polarity
p306
c__builtin__
str
p307
S'-'
p308
tp309
Rp310
sg13
g310
sg15
g16
sba(iamr_util.Actions
AMRAction
p311
(dp312
g8
I0
sg9
Nsg10
Nsg11
S'she'
p313
sg13
g261
sg15
g16
sba(iamr_util.Actions
AMRAction
p314
(dp315
g8
I0
sg9
Nsg10
Nsg11
S'fight-01'
p316
sg13
g84
sg15
g16
sba(iamr_util.Actions
AMRAction
p317
(dp318
g8
I1
sg9
Nsg10
Nsg11
S'ARG0'
p319
sg13
Nsg15
g35
sba(iamr_util.Actions
AMRAction
p320
(dp321
g8
I1
sg9
Nsg10
Nsg11
S'polarity'
p322
sg13
Nsg15
g35
sba(iamr_util.Actions
AMRAction
p323
(dp324
g8
I3
sg9
Nsg10
Nsg11
Nsg13
Nsg15
g19
sba(iamr_util.Actions
AMRAction
p325
(dp326
g8
I3
sg9
Nsg10
Nsg11
Nsg13
Nsg15
g19
sba(iamr_util.Actions
AMRAction
p327
(dp328
g8
I0
sg9
Nsg10
Nsg11
S'cause-01'
p329
sg13
g48
sg15
g16
sba(iamr_util.Actions
AMRAction
p330
(dp331
g8
I0
sg9
Nsg10
Nsg11
S'she'
p332
sg13
S'COREF_s_0'
p333
sg15
g16
sba(iamr_util.Actions
AMRAction
p334
(dp335
g8
I0
sg9
Nsg10
Nsg11
S'think-01'
p336
sg13
g23
sg15
g16
sba(iamr_util.Actions
AMRAction
p337
(dp338
g8
I1
sg9
Nsg10
Nsg11
S'ARG0'
p339
sg13
Nsg15
g35
sba(iamr_util.Actions
AMRAction
p340
(dp341
g8
I0
sg9
Nsg10
Nsg11
S'person'
p342
sg13
S'COREF_p2_0'
p343
sg15
g16
sba(iamr_util.Actions
AMRAction
p344
(dp345
g8
I0
sg9
Nsg10
Nsg11
S'control-01'
p346
sg13
S'c2'
p347
sg15
g16
sba(iamr_util.Actions
AMRAction
p348
(dp349
g8
I1
sg9
Nsg10
Nsg11
S'ARG0'
p350
sg13
Nsg15
g35
sba(iamr_util.Actions
AMRAction
p351
(dp352
g8
I0
sg9
Nsg10
Nsg11
S'too'
p353
sg13
S't2'
p354
sg15
g16
sba(iamr_util.Actions
AMRAction
p355
(dp356
g8
I0
sg9
Nsg10
Nsg11
S'much'
p357
sg13
g67
sg15
g16
sba(iamr_util.Actions
AMRAction
p358
(dp359
g8
I1
sg9
Nsg10
Nsg11
S'degree'
p360
sg13
Nsg15
g35
sba(iamr_util.Actions
AMRAction
p361
(dp362
g8
I2
sg9
Nsg10
Nsg11
S'quant'
p363
sg13
Nsg15
g118
sba(iamr_util.Actions
AMRAction
p364
(dp365
g8
I3
sg9
Nsg10
Nsg11
Nsg13
Nsg15
g19
sba(iamr_util.Actions
AMRAction
p366
(dp367
g8
I3
sg9
Nsg10
Nsg11
Nsg13
Nsg15
g19
sba(iamr_util.Actions
AMRAction
p368
(dp369
g8
I0
sg9
Nsg10
Nsg11
S'other'
p370
sg13
g14
sg15
g16
sba(iamr_util.Actions
AMRAction
p371
(dp372
g8
I0
sg9
Nsg10
Nsg11
S'person'
p373
sg13
S'p3'
p374
sg15
g16
sba(iamr_util.Actions
AMRAction
p375
(dp376
g8
I1
sg9
Nsg10
Nsg11
S'mod'
p377
sg13
Nsg15
g35
sba(iamr_util.Actions
AMRAction
p378
(dp379
g8
I3
sg9
Nsg10
Nsg11
Nsg13
Nsg15
g19
sba(iamr_util.Actions
AMRAction
p380
(dp381
g8
I0
sg9
Nsg10
Nsg11
S'life'
p382
sg13
g224
sg15
g16
sba(iamr_util.Actions
AMRAction
p383
(dp384
g8
I1
sg9
Nsg10
Nsg11
S'poss'
p385
sg13
Nsg15
g35
sba(iamr_util.Actions
AMRAction
p386
(dp387
g8
I2
sg9
Nsg10
Nsg11
S'ARG1'
p388
sg13
Nsg15
g118
sba(iamr_util.Actions
AMRAction
p389
(dp390
g8
I2
sg9
Nsg10
Nsg11
S'ARG1'
p391
sg13
Nsg15
g118
sba(iamr_util.Actions
AMRAction
p392
(dp393
g8
I2
sg9
Nsg10
Nsg11
S'ARG0'
p394
sg13
Nsg15
g118
sba(iamr_util.Actions
AMRAction
p395
(dp396
g8
I2
sg9
Nsg10
Nsg11
S'ARG1-of'
p397
sg13
Nsg15
g118
sba(iamr_util.Actions
AMRAction
p398
(dp399
g8
I0
sg9
Nsg10
Nsg11
g1
(cutil
Interrogative
p400
g307
S'interrogative'
p401
tp402
Rp403
sg13
g403
sg15
g16
sba(iamr_util.Actions
AMRAction
p404
(dp405
g8
I2
sg9
Nsg10
Nsg11
S'mode'
p406
sg13
Nsg15
g118
sbaS'(f / fight-01~e.3 :mode~e.19 interrogative~e.19 :polarity~e.1 -~e.1\n      :ARG0 (s / she~e.2)\n      :ARG1 (p2 / person)\n      :ARG1-of (c / cause-01~e.6\n            :ARG0 (t / think-01~e.8,10\n                  :ARG0 (COREF_s_0 / she~e.7)\n                  :ARG1~e.10 (c2 / control-01~e.10,13\n                        :ARG0 (COREF_p2_0 / person~e.9)\n                        :ARG1 (l / life~e.18\n                              :poss~e.17 (p3 / person~e.16\n                                    :mod (o / other~e.15)))\n                        :quant (m / much~e.12\n                              :degree (t2 / too~e.11))))))'
p407
(dp408
(lp409
(lp410
(dp411
I1
tp412
tp413
Rp414
ag1
(g2
g3
(S'Somehow I doubt she would have gotten on board with fundamental change if it involved massive central and regional planning .'
p415
(lp416
(iamr_util.Actions
AMRAction
p417
(dp418
g8
I0
sg9
Nsg10
Nsg11
S'somehow'
p419
sg13
S's2'
p420
sg15
g16
sba(iamr_util.Actions
AMRAction
p421
(dp422
g8
I0
sg9
Nsg10
Nsg11
g89
sg13
g89
sg15
g16
sba(iamr_util.Actions
AMRAction
p423
(dp424
g8
I0
sg9
Nsg10
Nsg11
S'doubt-01'
p425
sg13
g131
sg15
g16
sba(iamr_util.Actions
AMRAction
p426
(dp427
g8
I1
sg9
Nsg10
Nsg11
S'ARG0'
p428
sg13
Nsg15
g35
sba(iamr_util.Actions
AMRAction
p429
(dp430
g8
I1
sg9
Nsg10
Nsg11
S'mod'
p431
sg13
Nsg15
g35
sba(iamr_util.Actions
AMRAction
p432
(dp433
g8
I0
sg9
Nsg10
Nsg11
S'she'
p434
sg13
g261
sg15
g16
sba(iamr_util.Actions
AMRAction
p435
(dp436
g8
I3
sg9
Nsg10
Nsg11
Nsg13
Nsg15
g19
sba(iamr_util.Actions
AMRAction
p437
(dp438
g8
I3
sg9
Nsg10
Nsg11
Nsg13
Nsg15
g19
sba(iamr_util.Actions
AMRAction
p439
(dp440
g8
I0
sg9
Nsg10
Nsg11
S'get-05'
p441
sg13
S'g'
p442
sg15
g16
sba(iamr_util.Actions
AMRAction
p443
(dp444
g8
I1
sg9
Nsg10
Nsg11
S'ARG1'
p445
sg13
Nsg15
g35
sba(iamr_util.Actions
AMRAction
p446
(dp447
g8
I3
sg9
Nsg10
Nsg11
Nsg13
Nsg15
g19
sba(iamr_util.Actions
AMRAction
p448
(dp449
g8
I0
sg9
Nsg10
Nsg11
S'board-01'
p450
sg13
S'b'
p451
sg15
g16
sba(iamr_util.Actions
AMRAction
p452
(dp453
g8
I3
sg9
Nsg10
Nsg11
Nsg13
Nsg15
g19
sba(iamr_util.Actions
AMRAction
p454
(dp455
g8
I0
sg9
Nsg10
Nsg11
S'fundamental'
p456
sg13
g84
sg15
g16
sba(iamr_util.Actions
AMRAction
p457
(dp458
g8
I0
sg9
Nsg10
Nsg11
S'change-01'
p459
sg13
g48
sg15
g16
sba(iamr_util.Actions
AMRAction
p460
(dp461
g8
I1
sg9
Nsg10
Nsg11
S'mod'
p462
sg13
Nsg15
g35
sba(iamr_util.Actions
AMRAction
p463
(dp464
g8
I2
sg9
Nsg10
Nsg11
S'accompanier'
p465
sg13
Nsg15
g118
sba(iamr_util.Actions
AMRAction
p466
(dp467
g8
I2
sg9
Nsg10
Nsg11
S'ARG2'
p468
sg13
Nsg15
g118
sba(iamr_util.Actions
AMRAction
p469
(dp470
g8
I3
sg9
Nsg10
Nsg11
Nsg13
Nsg15
g19
sba(iamr_util.Actions
AMRAction
p471
(dp472
g8
I0
sg9
Nsg10
Nsg11
S'change-01'
p473
sg13
S'COREF_c_0'
p474
sg15
g16
sba(iamr_util.Actions
AMRAction
p475
(dp476
g8
I0
sg9
Nsg10
Nsg11
S'involve-01'
p477
sg13
S'i2'
p478
sg15
g16
sba(iamr_util.Actions
AMRAction
p479
(dp480
g8
I1
sg9
Nsg10
Nsg11
S'ARG2'
p481
sg13
Nsg15
g35
sba(iamr_util.Actions
AMRAction
p482
(dp483
g8
I0
sg9
Nsg10
Nsg11
S'massive'
p484
sg13
g67
sg15
g16
sba(iamr_util.Actions
AMRAction
p485
(dp486
g8
I0
sg9
Nsg10
Nsg11
S'central'
p487
sg13
S'c2'
p488
sg15
g16
sba(iamr_util.Actions
AMRAction
p489
(dp490
g8
I3
sg9
Nsg10
Nsg11
Nsg13
Nsg15
g19
sba(iamr_util.Actions
AMRAction
p491
(dp492
g8
I0
sg9
Nsg10
Nsg11
S'region'
p493
sg13
S'r'
p494
sg15
g16
sba(iamr_util.Actions
AMRAction
p495
(dp496
g8
I0
sg9
Nsg10
Nsg11
S'plan-01'
p497
sg13
g71
sg15
g16
sba(iamr_util.Actions
AMRAction
p498
(dp499
g8
I1
sg9
Nsg10
Nsg11
S'mod'
p500
sg13
Nsg15
g35
sba(iamr_util.Actions
AMRAction
p501
(dp502
g8
I1
sg9
Nsg10
Nsg11
g500
sg13
Nsg15
g35
sba(iamr_util.Actions
AMRAction
p503
(dp504
g8
I1
sg9
Nsg10
Nsg11
g500
sg13
Nsg15
g35
sba(iamr_util.Actions
AMRAction
p505
(dp506
g8
I2
sg9
Nsg10
Nsg11
S'ARG1'
p507
sg13
Nsg15
g118
sba(iamr_util.Actions
AMRAction
p508
(dp509
g8
I2
sg9
Nsg10
Nsg11
S'condition'
p510
sg13
Nsg15
g118
sba(iamr_util.Actions
AMRAction
p511
(dp512
g8
I2
sg9
Nsg10
Nsg11
S'ARG1'
p513
sg13
Nsg15
g118
sba(iamr_util.Actions
AMRAction
p514
(dp515
g8
I3
sg9
Nsg10
Nsg11
Nsg13
Nsg15
g19
sbaS'(d / doubt-01~e.2\n      :ARG0 (i / i~e.1)\n      :ARG1 (g / get-05~e.6\n            :ARG1 (s / she~e.3)\n            :ARG2~e.7 (b / board-01~e.8\n                  :accompanier~e.9 (c / change-01~e.11\n                        :mod (f / fundamental~e.10)))\n            :condition~e.12 (i2 / involve-01~e.14\n                  :ARG1 (p / plan-01~e.19\n                        :mod (c2 / central~e.16)\n                        :mod (r / region~e.18)\n                        :mod (m / massive~e.15))\n                  :ARG2 (COREF_c_0 / change-01~e.13)))\n      :mod (s2 / somehow~e.0))'
p516
(dp517
(lp518
(lp519
(dp520
I1
tp521
tp522
Rp523
ag1
(g2
g3
(S'Like you , Jim , I see the bright silver lining .'
p524
(lp525
(iamr_util.Actions
AMRAction
p526
(dp527
g8
I0
sg9
Nsg10
Nsg11
S'resemble-01'
p528
sg13
g494
sg15
g16
sba(iamr_util.Actions
AMRAction
p529
(dp530
g8
I0
sg9
Nsg10
Nsg11
S'person'
p531
sg13
S'COREF_p2_0'
p532
sg15
g16
sba(iamr_util.Actions
AMRAction
p533
(dp534
g8
I2
sg9
Nsg10
Nsg11
S'ARG2'
p535
sg13
Nsg15
g118
sba(iamr_util.Actions
AMRAction
p536
(dp537
g8
I3
sg9
Nsg10
Nsg11
Nsg13
Nsg15
g19
sba(iamr_util.Actions
AMRAction
p538
(dp539
g8
I3
sg9
Nsg10
Nsg11
Nsg13
Nsg15
g19
sba(iamr_util.Actions
AMRAction
p540
(dp541
g8
I3
sg9
Nsg10
Nsg11
Nsg13
Nsg15
g19
sba(iamr_util.Actions
AMRAction
p542
(dp543
g8
I0
sg9
Nsg10
Nsg11
g89
sg13
g89
sg15
g16
sba(iamr_util.Actions
AMRAction
p544
(dp545
g8
I0
sg9
Nsg10
Nsg11
S'see-01'
p546
sg13
S's2'
p547
sg15
g16
sba(iamr_util.Actions
AMRAction
p548
(dp549
g8
I1
sg9
Nsg10
Nsg11
S'ARG0'
p550
sg13
Nsg15
g35
sba(iamr_util.Actions
AMRAction
p551
(dp552
g8
I1
sg9
Nsg10
Nsg11
S'ARG1-of'
p553
sg13
Nsg15
g35
sba(iamr_util.Actions
AMRAction
p554
(dp555
g8
I3
sg9
Nsg10
Nsg11
Nsg13
Nsg15
g19
sba(iamr_util.Actions
AMRAction
p556
(dp557
g8
I0
sg9
Nsg10
Nsg11
S'bright-02'
p558
sg13
g451
sg15
g16
sba(iamr_util.Actions
AMRAction
p559
(dp560
g8
I0
sg9
Nsg10
Nsg11
S'silver'
p561
sg13
S's3'
p562
sg15
g16
sba(iamr_util.Actions
AMRAction
p563
(dp564
g8
I0
sg9
Nsg10
Nsg11
S'line-01'
p565
sg13
g224
sg15
g16
sba(iamr_util.Actions
AMRAction
p566
(dp567
g8
I1
sg9
Nsg10
Nsg11
S'mod'
p568
sg13
Nsg15
g35
sba(iamr_util.Actions
AMRAction
p569
(dp570
g8
I1
sg9
Nsg10
Nsg11
S'ARG1-of'
p571
sg13
Nsg15
g35
sba(iamr_util.Actions
AMRAction
p572
(dp573
g8
I2
sg9
Nsg10
Nsg11
S'ARG1'
p574
sg13
Nsg15
g118
sba(iamr_util.Actions
AMRAction
p575
(dp576
g8
I3
sg9
Nsg10
Nsg11
Nsg13
Nsg15
g19
sbaS'(s / say-01\n      :ARG0 (COREF_i_0 / i)\n      :ARG1 (s2 / see-01~e.6\n            :ARG0 (i / i~e.5)\n            :ARG1 (l / line-01~e.10\n                  :mod (s3 / silver~e.9)\n                  :ARG1-of (b / bright-02~e.8))\n            :ARG1-of (r / resemble-01~e.0\n                  :ARG2 (COREF_p2_0 / person~e.1)))\n      :ARG2 (p2 / person))'
p577
(dp578
(lp579
(lp580
(dp581
I1
tp582
tp583
Rp584
ag1
(g2
g3
(S"He notices that I 'm kind of staring at him ."
p585
(lp586
(iamr_util.Actions
AMRAction
p587
(dp588
g8
I0
sg9
Nsg10
Nsg11
S'he'
p589
sg13
S'h'
p590
sg15
g16
sba(iamr_util.Actions
AMRAction
p591
(dp592
g8
I0
sg9
Nsg10
Nsg11
S'notice-01'
p593
sg13
g31
sg15
g16
sba(iamr_util.Actions
AMRAction
p594
(dp595
g8
I1
sg9
Nsg10
Nsg11
S'ARG0'
p596
sg13
Nsg15
g35
sba(iamr_util.Actions
AMRAction
p597
(dp598
g8
I3
sg9
Nsg10
Nsg11
Nsg13
Nsg15
g19
sba(iamr_util.Actions
AMRAction
p599
(dp600
g8
I0
sg9
Nsg10
Nsg11
g89
sg13
g89
sg15
g16
sba(iamr_util.Actions
AMRAction
p601
(dp602
g8
I3
sg9
Nsg10
Nsg11
Nsg13
Nsg15
g19
sba(iamr_util.Actions
AMRAction
p603
(dp604
g8
I0
sg9
Nsg10
Nsg11
S'kind-of'
p605
sg13
g254
sg15
g16
sba(iamr_util.Actions
AMRAction
p606
(dp607
g8
I3
sg9
Nsg10
Nsg11
Nsg13
Nsg15
g19
sba(iamr_util.Actions
AMRAction
p608
(dp609
g8
I0
sg9
Nsg10
Nsg11
S'stare-01'
p610
sg13
g261
sg15
g16
sba(iamr_util.Actions
AMRAction
p611
(dp612
g8
I1
sg9
Nsg10
Nsg11
S'mod'
p613
sg13
Nsg15
g35
sba(iamr_util.Actions
AMRAction
p614
(dp615
g8
I1
sg9
Nsg10
Nsg11
S'ARG0'
p616
sg13
Nsg15
g35
sba(iamr_util.Actions
AMRAction
p617
(dp618
g8
I3
sg9
Nsg10
Nsg11
Nsg13
Nsg15
g19
sba(iamr_util.Actions
AMRAction
p619
(dp620
g8
I0
sg9
Nsg10
Nsg11
S'he'
p621
sg13
S'COREF_h_0'
p622
sg15
g16
sba(iamr_util.Actions
AMRAction
p623
(dp624
g8
I2
sg9
Nsg10
Nsg11
S'ARG1'
p625
sg13
Nsg15
g118
sba(iamr_util.Actions
AMRAction
p626
(dp627
g8
I2
sg9
Nsg10
Nsg11
S'ARG1'
p628
sg13
Nsg15
g118
sba(iamr_util.Actions
AMRAction
p629
(dp630
g8
I3
sg9
Nsg10
Nsg11
Nsg13
Nsg15
g19
sbaS'(n / notice-01~e.1\n      :ARG0 (h / he~e.0)\n      :ARG1~e.2 (s / stare-01~e.7\n            :ARG0 (i / i~e.3)\n            :ARG1~e.8 (COREF_h_0 / he~e.9)\n            :mod (k / kind-of~e.5,6)))'
p631
(dp632
(lp633
(lp634
(dp635
I1
tp636
tp637
Rp638
ag1
(g2
g3
(S'& then he shoves his hand hard into my groin .....'
p639
(lp640
(iamr_util.Actions
AMRAction
p641
(dp642
g8
I3
sg9
Nsg10
Nsg11
Nsg13
Nsg15
g19
sba(iamr_util.Actions
AMRAction
p643
(dp644
g8
I0
sg9
Nsg10
Nsg11
S'then'
p645
sg13
g23
sg15
g16
sba(iamr_util.Actions
AMRAction
p646
(dp647
g8
I0
sg9
Nsg10
Nsg11
S'he'
p648
sg13
g590
sg15
g16
sba(iamr_util.Actions
AMRAction
p649
(dp650
g8
I0
sg9
Nsg10
Nsg11
S'shove-01'
p651
sg13
g261
sg15
g16
sba(iamr_util.Actions
AMRAction
p652
(dp653
g8
I1
sg9
Nsg10
Nsg11
S'ARG0'
p654
sg13
Nsg15
g35
sba(iamr_util.Actions
AMRAction
p655
(dp656
g8
I1
sg9
Nsg10
Nsg11
S'time'
p657
sg13
Nsg15
g35
sba(iamr_util.Actions
AMRAction
p658
(dp659
g8
I0
sg9
Nsg10
Nsg11
S'he'
p660
sg13
S'COREF_h_0'
p661
sg15
g16
sba(iamr_util.Actions
AMRAction
p662
(dp663
g8
I0
sg9
Nsg10
Nsg11
S'hand'
p664
sg13
S'h2'
p665
sg15
g16
sba(iamr_util.Actions
AMRAction
p666
(dp667
g8
I1
sg9
Nsg10
Nsg11
S'part-of'
p668
sg13
Nsg15
g35
sba(iamr_util.Actions
AMRAction
p669
(dp670
g8
I2
sg9
Nsg10
Nsg11
S'ARG1'
p671
sg13
Nsg15
g118
sba(iamr_util.Actions
AMRAction
p672
(dp673
g8
I0
sg9
Nsg10
Nsg11
S'hard-04'
p674
sg13
S'h3'
p675
sg15
g16
sba(iamr_util.Actions
AMRAction
p676
(dp677
g8
I2
sg9
Nsg10
Nsg11
S'ARG1-of'
p678
sg13
Nsg15
g118
sba(iamr_util.Actions
AMRAction
p679
(dp680
g8
I3
sg9
Nsg10
Nsg11
Nsg13
Nsg15
g19
sba(iamr_util.Actions
AMRAction
p681
(dp682
g8
I0
sg9
Nsg10
Nsg11
g89
sg13
g89
sg15
g16
sba(iamr_util.Actions
AMRAction
p683
(dp684
g8
I0
sg9
Nsg10
Nsg11
S'groin'
p685
sg13
g442
sg15
g16
sba(iamr_util.Actions
AMRAction
p686
(dp687
g8
I1
sg9
Nsg10
Nsg11
S'part-of'
p688
sg13
Nsg15
g35
sba(iamr_util.Actions
AMRAction
p689
(dp690
g8
I2
sg9
Nsg10
Nsg11
S'ARG2'
p691
sg13
Nsg15
g118
sba(iamr_util.Actions
AMRAction
p692
(dp693
g8
I3
sg9
Nsg10
Nsg11
Nsg13
Nsg15
g19
sbaS'(a / and\n      :op2 (s / shove-01~e.3\n            :ARG0 (h / he~e.2)\n            :ARG1 (h2 / hand~e.5\n                  :part-of~e.4 (COREF_h_0 / he~e.4))\n            :ARG2~e.7 (g / groin~e.9\n                  :part-of~e.8 (i / i~e.8))\n            :ARG1-of (h3 / hard-04~e.6)\n            :time (t / then~e.1)))'
p694
(dp695
(lp696
(lp697
(dp698
I1
tp699
tp700
Rp701
ag1
(g2
g3
(S'.... & I broke his nose with my elbow .'
p702
(lp703
(iamr_util.Actions
AMRAction
p704
(dp705
g8
I3
sg9
Nsg10
Nsg11
Nsg13
Nsg15
g19
sba(iamr_util.Actions
AMRAction
p706
(dp707
g8
I3
sg9
Nsg10
Nsg11
Nsg13
Nsg15
g19
sba(iamr_util.Actions
AMRAction
p708
(dp709
g8
I0
sg9
Nsg10
Nsg11
g89
sg13
g89
sg15
g16
sba(iamr_util.Actions
AMRAction
p710
(dp711
g8
I0
sg9
Nsg10
Nsg11
S'break-01'
p712
sg13
g451
sg15
g16
sba(iamr_util.Actions
AMRAction
p713
(dp714
g8
I1
sg9
Nsg10
Nsg11
S'ARG0'
p715
sg13
Nsg15
g35
sba(iamr_util.Actions
AMRAction
p716
(dp717
g8
I0
sg9
Nsg10
Nsg11
S'he'
p718
sg13
g590
sg15
g16
sba(iamr_util.Actions
AMRAction
p719
(dp720
g8
I0
sg9
Nsg10
Nsg11
S'nose'
p721
sg13
g31
sg15
g16
sba(iamr_util.Actions
AMRAction
p722
(dp723
g8
I1
sg9
Nsg10
Nsg11
S'part-of'
p724
sg13
Nsg15
g35
sba(iamr_util.Actions
AMRAction
p725
(dp726
g8
I2
sg9
Nsg10
Nsg11
S'ARG1'
p727
sg13
Nsg15
g118
sba(iamr_util.Actions
AMRAction
p728
(dp729
g8
I3
sg9
Nsg10
Nsg11
Nsg13
Nsg15
g19
sba(iamr_util.Actions
AMRAction
p730
(dp731
g8
I0
sg9
Nsg10
Nsg11
g89
sg13
S'COREF_i_0'
p732
sg15
g16
sba(iamr_util.Actions
AMRAction
p733
(dp734
g8
I0
sg9
Nsg10
Nsg11
S'elbow'
p735
sg13
g138
sg15
g16
sba(iamr_util.Actions
AMRAction
p736
(dp737
g8
I1
sg9
Nsg10
Nsg11
S'part-of'
p738
sg13
Nsg15
g35
sba(iamr_util.Actions
AMRAction
p739
(dp740
g8
I2
sg9
Nsg10
Nsg11
S'ARG2'
p741
sg13
Nsg15
g118
sba(iamr_util.Actions
AMRAction
p742
(dp743
g8
I3
sg9
Nsg10
Nsg11
Nsg13
Nsg15
g19
sbaS'(a / and\n      :op2 (b / break-01~e.3\n            :ARG0 (i / i~e.2)\n            :ARG1 (n / nose~e.5\n                  :part-of~e.4 (h / he~e.4))\n            :ARG2~e.6 (e / elbow~e.8\n                  :part-of~e.7 (COREF_i_0 / i~e.7))))'
p744
(dp745
(lp746
(lp747
(dp748
I1
tp749
tp750
Rp751
ag1
(g2
g3
(S'a man wipes his mouth completely off his face ,'
p752
(lp753
(iamr_util.Actions
AMRAction
p754
(dp755
g8
I3
sg9
Nsg10
Nsg11
Nsg13
Nsg15
g19
sba(iamr_util.Actions
AMRAction
p756
(dp757
g8
I0
sg9
Nsg10
Nsg11
S'man'
p758
sg13
g67
sg15
g16
sba(iamr_util.Actions
AMRAction
p759
(dp760
g8
I0
sg9
Nsg10
Nsg11
S'wipe-01'
p761
sg13
S'w'
p762
sg15
g16
sba(iamr_util.Actions
AMRAction
p763
(dp764
g8
I1
sg9
Nsg10
Nsg11
S'ARG0'
p765
sg13
Nsg15
g35
sba(iamr_util.Actions
AMRAction
p766
(dp767
g8
I0
sg9
Nsg10
Nsg11
S'man'
p768
sg13
S'COREF_m_0'
p769
sg15
g16
sba(iamr_util.Actions
AMRAction
p770
(dp771
g8
I0
sg9
Nsg10
Nsg11
S'mouth'
p772
sg13
S'm2'
p773
sg15
g16
sba(iamr_util.Actions
AMRAction
p774
(dp775
g8
I1
sg9
Nsg10
Nsg11
S'part-of'
p776
sg13
Nsg15
g35
sba(iamr_util.Actions
AMRAction
p777
(dp778
g8
I2
sg9
Nsg10
Nsg11
S'ARG1'
p779
sg13
Nsg15
g118
sba(iamr_util.Actions
AMRAction
p780
(dp781
g8
I0
sg9
Nsg10
Nsg11
S'complete-02'
p782
sg13
g48
sg15
g16
sba(iamr_util.Actions
AMRAction
p783
(dp784
g8
I2
sg9
Nsg10
Nsg11
S'ARG1-of'
p785
sg13
Nsg15
g118
sba(iamr_util.Actions
AMRAction
p786
(dp787
g8
I3
sg9
Nsg10
Nsg11
Nsg13
Nsg15
g19
sba(iamr_util.Actions
AMRAction
p788
(dp789
g8
I0
sg9
Nsg10
Nsg11
S'man'
p790
sg13
S'COREF_m_1'
p791
sg15
g16
sba(iamr_util.Actions
AMRAction
p792
(dp793
g8
I0
sg9
Nsg10
Nsg11
S'face'
p794
sg13
g84
sg15
g16
sba(iamr_util.Actions
AMRAction
p795
(dp796
g8
I1
sg9
Nsg10
Nsg11
S'part-of'
p797
sg13
Nsg15
g35
sba(iamr_util.Actions
AMRAction
p798
(dp799
g8
I2
sg9
Nsg10
Nsg11
S'ARG2'
p800
sg13
Nsg15
g118
sba(iamr_util.Actions
AMRAction
p801
(dp802
g8
I3
sg9
Nsg10
Nsg11
Nsg13
Nsg15
g19
sbaS'(w / wipe-01~e.2\n      :ARG0 (m / man~e.1)\n      :ARG1 (m2 / mouth~e.4\n            :part-of~e.3 (COREF_m_0 / man~e.3))\n      :ARG2 (f / face~e.8\n            :part-of~e.7 (COREF_m_1 / man~e.7))\n      :ARG1-of (c / complete-02~e.5))'
p803
(dp804
(lp805
(lp806
(dp807
I1
tp808
tp809
Rp810
ag1
(g2
g3
(S'These gave his films their dreamlike quality .'
p811
(lp812
(iamr_util.Actions
AMRAction
p813
(dp814
g8
I0
sg9
Nsg10
Nsg11
S'this'
p815
sg13
g23
sg15
g16
sba(iamr_util.Actions
AMRAction
p816
(dp817
g8
I0
sg9
Nsg10
Nsg11
S'give-01'
p818
sg13
g442
sg15
g16
sba(iamr_util.Actions
AMRAction
p819
(dp820
g8
I1
sg9
Nsg10
Nsg11
S'ARG0'
p821
sg13
Nsg15
g35
sba(iamr_util.Actions
AMRAction
p822
(dp823
g8
I0
sg9
Nsg10
Nsg11
S'he'
p824
sg13
g590
sg15
g16
sba(iamr_util.Actions
AMRAction
p825
(dp826
g8
I0
sg9
Nsg10
Nsg11
S'film'
p827
sg13
g84
sg15
g16
sba(iamr_util.Actions
AMRAction
p828
(dp829
g8
I1
sg9
Nsg10
Nsg11
S'poss'
p830
sg13
Nsg15
g35
sba(iamr_util.Actions
AMRAction
p831
(dp832
g8
I2
sg9
Nsg10
Nsg11
S'ARG2'
p833
sg13
Nsg15
g118
sba(iamr_util.Actions
AMRAction
p834
(dp835
g8
I0
sg9
Nsg10
Nsg11
S'film'
p836
sg13
S'COREF_f_0'
p837
sg15
g16
sba(iamr_util.Actions
AMRAction
p838
(dp839
g8
I0
sg9
Nsg10
Nsg11
S'dreamlike'
p840
sg13
g131
sg15
g16
sba(iamr_util.Actions
AMRAction
p841
(dp842
g8
I0
sg9
Nsg10
Nsg11
S'quality'
p843
sg13
S'q'
p844
sg15
g16
sba(iamr_util.Actions
AMRAction
p845
(dp846
g8
I1
sg9
Nsg10
Nsg11
S'mod'
p847
sg13
Nsg15
g35
sba(iamr_util.Actions
AMRAction
p848
(dp849
g8
I1
sg9
Nsg10
Nsg11
S'poss'
p850
sg13
Nsg15
g35
sba(iamr_util.Actions
AMRAction
p851
(dp852
g8
I2
sg9
Nsg10
Nsg11
S'ARG1'
p853
sg13
Nsg15
g118
sba(iamr_util.Actions
AMRAction
p854
(dp855
g8
I3
sg9
Nsg10
Nsg11
Nsg13
Nsg15
g19
sbaS'(g / give-01~e.1\n      :ARG0 (t / this~e.0)\n      :ARG1 (q / quality~e.6\n            :mod (d / dreamlike~e.5)\n            :poss~e.4 (COREF_f_0 / film~e.4))\n      :ARG2 (f / film~e.3\n            :poss~e.2 (h / he~e.2)))'
p856
(dp857
(lp858
(lp859
(dp860
I1
tp861
tp862
Rp863
ag1
(g2
g3
(S'He is profoundly sanctimonious - to the degree that he even blesses his own tooth when it falls from his mouth .'
p864
(lp865
(iamr_util.Actions
AMRAction
p866
(dp867
g8
I0
sg9
Nsg10
Nsg11
S'he'
p868
sg13
g590
sg15
g16
sba(iamr_util.Actions
AMRAction
p869
(dp870
g8
I3
sg9
Nsg10
Nsg11
Nsg13
Nsg15
g19
sba(iamr_util.Actions
AMRAction
p871
(dp872
g8
I0
sg9
Nsg10
Nsg11
S'profound'
p873
sg13
g71
sg15
g16
sba(iamr_util.Actions
AMRAction
p874
(dp875
g8
I0
sg9
Nsg10
Nsg11
S'sanctimonious'
p876
sg13
g261
sg15
g16
sba(iamr_util.Actions
AMRAction
p877
(dp878
g8
I1
sg9
Nsg10
Nsg11
S'degree'
p879
sg13
Nsg15
g35
sba(iamr_util.Actions
AMRAction
p880
(dp881
g8
I1
sg9
Nsg10
Nsg11
S'domain'
p882
sg13
Nsg15
g35
sba(iamr_util.Actions
AMRAction
p883
(dp884
g8
I3
sg9
Nsg10
Nsg11
Nsg13
Nsg15
g19
sba(iamr_util.Actions
AMRAction
p885
(dp886
g8
I3
sg9
Nsg10
Nsg11
Nsg13
Nsg15
g19
sba(iamr_util.Actions
AMRAction
p887
(dp888
g8
I3
sg9
Nsg10
Nsg11
Nsg13
Nsg15
g19
sba(iamr_util.Actions
AMRAction
p889
(dp890
g8
I3
sg9
Nsg10
Nsg11
Nsg13
Nsg15
g19
sba(iamr_util.Actions
AMRAction
p891
(dp892
g8
I3
sg9
Nsg10
Nsg11
Nsg13
Nsg15
g19
sba(iamr_util.Actions
AMRAction
p893
(dp894
g8
I0
sg9
Nsg10
Nsg11
S'he'
p895
sg13
S'COREF_h_0'
p896
sg15
g16
sba(iamr_util.Actions
AMRAction
p897
(dp898
g8
I0
sg9
Nsg10
Nsg11
S'even'
p899
sg13
g138
sg15
g16
sba(iamr_util.Actions
AMRAction
p900
(dp901
g8
I0
sg9
Nsg10
Nsg11
S'bless-01'
p902
sg13
g451
sg15
g16
sba(iamr_util.Actions
AMRAction
p903
(dp904
g8
I1
sg9
Nsg10
Nsg11
S'mod'
p905
sg13
Nsg15
g35
sba(iamr_util.Actions
AMRAction
p906
(dp907
g8
I1
sg9
Nsg10
Nsg11
S'ARG0'
p908
sg13
Nsg15
g35
sba(iamr_util.Actions
AMRAction
p909
(dp910
g8
I0
sg9
Nsg10
Nsg11
S'he'
p911
sg13
S'COREF_h_1'
p912
sg15
g16
sba(iamr_util.Actions
AMRAction
p913
(dp914
g8
I3
sg9
Nsg10
Nsg11
Nsg13
Nsg15
g19
sba(iamr_util.Actions
AMRAction
p915
(dp916
g8
I0
sg9
Nsg10
Nsg11
S'tooth'
p917
sg13
g23
sg15
g16
sba(iamr_util.Actions
AMRAction
p918
(dp919
g8
I1
sg9
Nsg10
Nsg11
S'part-of'
p920
sg13
Nsg15
g35
sba(iamr_util.Actions
AMRAction
p921
(dp922
g8
I2
sg9
Nsg10
Nsg11
S'ARG1'
p923
sg13
Nsg15
g118
sba(iamr_util.Actions
AMRAction
p924
(dp925
g8
I3
sg9
Nsg10
Nsg11
Nsg13
Nsg15
g19
sba(iamr_util.Actions
AMRAction
p926
(dp927
g8
I0
sg9
Nsg10
Nsg11
S'tooth'
p928
sg13
S'COREF_t_0'
p929
sg15
g16
sba(iamr_util.Actions
AMRAction
p930
(dp931
g8
I0
sg9
Nsg10
Nsg11
S'fall-01'
p932
sg13
g84
sg15
g16
sba(iamr_util.Actions
AMRAction
p933
(dp934
g8
I1
sg9
Nsg10
Nsg11
S'ARG1'
p935
sg13
Nsg15
g35
sba(iamr_util.Actions
AMRAction
p936
(dp937
g8
I3
sg9
Nsg10
Nsg11
Nsg13
Nsg15
g19
sba(iamr_util.Actions
AMRAction
p938
(dp939
g8
I0
sg9
Nsg10
Nsg11
S'he'
p940
sg13
S'COREF_h_2'
p941
sg15
g16
sba(iamr_util.Actions
AMRAction
p942
(dp943
g8
I0
sg9
Nsg10
Nsg11
S'mouth'
p944
sg13
g67
sg15
g16
sba(iamr_util.Actions
AMRAction
p945
(dp946
g8
I1
sg9
Nsg10
Nsg11
S'part-of'
p947
sg13
Nsg15
g35
sba(iamr_util.Actions
AMRAction
p948
(dp949
g8
I2
sg9
Nsg10
Nsg11
S'ARG3'
p950
sg13
Nsg15
g118
sba(iamr_util.Actions
AMRAction
p951
(dp952
g8
I2
sg9
Nsg10
Nsg11
S'time'
p953
sg13
Nsg15
g118
sba(iamr_util.Actions
AMRAction
p954
(dp955
g8
I2
sg9
Nsg10
Nsg11
g879
sg13
Nsg15
g118
sba(iamr_util.Actions
AMRAction
p956
(dp957
g8
I3
sg9
Nsg10
Nsg11
Nsg13
Nsg15
g19
sbaS'(s / sanctimonious~e.3\n      :degree~e.7 (p / profound~e.2)\n      :domain~e.1 (h / he~e.0)\n      :degree~e.7 (b / bless-01~e.11\n            :ARG0 (COREF_h_0 / he~e.9)\n            :ARG1 (t / tooth~e.14\n                  :part-of~e.12 (COREF_h_1 / he~e.12))\n            :time~e.15 (f / fall-01~e.17\n                  :ARG1 (COREF_t_0 / tooth~e.16)\n                  :ARG3~e.18 (m / mouth~e.20\n                        :part-of~e.19 (COREF_h_2 / he~e.19)))\n            :mod (e / even~e.10)))'
p958
(dp959
(lp960
(lp961
(dp962
I1
tp963
tp964
Rp965
ag1
(g2
g3
(S'`` The saint , devoted to his god , sits high on a pillar for all of life ....'
p966
(lp967
(iamr_util.Actions
AMRAction
p968
(dp969
g8
I3
sg9
Nsg10
Nsg11
Nsg13
Nsg15
g19
sba(iamr_util.Actions
AMRAction
p970
(dp971
g8
I3
sg9
Nsg10
Nsg11
Nsg13
Nsg15
g19
sba(iamr_util.Actions
AMRAction
p972
(dp973
g8
I0
sg9
Nsg10
Nsg11
S'saint'
p974
sg13
S's2'
p975
sg15
g16
sba(iamr_util.Actions
AMRAction
p976
(dp977
g8
I3
sg9
Nsg10
Nsg11
Nsg13
Nsg15
g19
sba(iamr_util.Actions
AMRAction
p978
(dp979
g8
I0
sg9
Nsg10
Nsg11
S'devote-01'
p980
sg13
g131
sg15
g16
sba(iamr_util.Actions
AMRAction
p981
(dp982
g8
I3
sg9
Nsg10
Nsg11
Nsg13
Nsg15
g19
sba(iamr_util.Actions
AMRAction
p983
(dp984
g8
I0
sg9
Nsg10
Nsg11
S'saint'
p985
sg13
S'COREF_s2_0'
p986
sg15
g16
sba(iamr_util.Actions
AMRAction
p987
(dp988
g8
I0
sg9
Nsg10
Nsg11
S'god'
p989
sg13
g442
sg15
g16
sba(iamr_util.Actions
AMRAction
p990
(dp991
g8
I1
sg9
Nsg10
Nsg11
S'poss'
p992
sg13
Nsg15
g35
sba(iamr_util.Actions
AMRAction
p993
(dp994
g8
I2
sg9
Nsg10
Nsg11
S'ARG2'
p995
sg13
Nsg15
g118
sba(iamr_util.Actions
AMRAction
p996
(dp997
g8
I2
sg9
Nsg10
Nsg11
S'ARG1-of'
p998
sg13
Nsg15
g118
sba(iamr_util.Actions
AMRAction
p999
(dp1000
g8
I3
sg9
Nsg10
Nsg11
Nsg13
Nsg15
g19
sba(iamr_util.Actions
AMRAction
p1001
(dp1002
g8
I0
sg9
Nsg10
Nsg11
S'sit-01'
p1003
sg13
g261
sg15
g16
sba(iamr_util.Actions
AMRAction
p1004
(dp1005
g8
I1
sg9
Nsg10
Nsg11
S'ARG1'
p1006
sg13
Nsg15
g35
sba(iamr_util.Actions
AMRAction
p1007
(dp1008
g8
I0
sg9
Nsg10
Nsg11
S'high'
p1009
sg13
g590
sg15
g16
sba(iamr_util.Actions
AMRAction
p1010
(dp1011
g8
I2
sg9
Nsg10
Nsg11
S'manner'
p1012
sg13
Nsg15
g118
sba(iamr_util.Actions
AMRAction
p1013
(dp1014
g8
I3
sg9
Nsg10
Nsg11
Nsg13
Nsg15
g19
sba(iamr_util.Actions
AMRAction
p1015
(dp1016
g8
I3
sg9
Nsg10
Nsg11
Nsg13
Nsg15
g19
sba(iamr_util.Actions
AMRAction
p1017
(dp1018
g8
I0
sg9
Nsg10
Nsg11
S'pillar'
p1019
sg13
g71
sg15
g16
sba(iamr_util.Actions
AMRAction
p1020
(dp1021
g8
I2
sg9
Nsg10
Nsg11
S'ARG2'
p1022
sg13
Nsg15
g118
sba(iamr_util.Actions
AMRAction
p1023
(dp1024
g8
I3
sg9
Nsg10
Nsg11
Nsg13
Nsg15
g19
sba(iamr_util.Actions
AMRAction
p1025
(dp1026
g8
I0
sg9
Nsg10
Nsg11
S'all'
p1027
sg13
g61
sg15
g16
sba(iamr_util.Actions
AMRAction
p1028
(dp1029
g8
I3
sg9
Nsg10
Nsg11
Nsg13
Nsg15
g19
sba(iamr_util.Actions
AMRAction
p1030
(dp1031
g8
I0
sg9
Nsg10
Nsg11
S'life'
p1032
sg13
g224
sg15
g16
sba(iamr_util.Actions
AMRAction
p1033
(dp1034
g8
I1
sg9
Nsg10
Nsg11
S'mod'
p1035
sg13
Nsg15
g35
sba(iamr_util.Actions
AMRAction
p1036
(dp1037
g8
I2
sg9
Nsg10
Nsg11
S'duration'
p1038
sg13
Nsg15
g118
sba(iamr_util.Actions
AMRAction
p1039
(dp1040
g8
I3
sg9
Nsg10
Nsg11
Nsg13
Nsg15
g19
sbaS'(s / sit-01~e.9\n      :ARG1 (s2 / saint~e.2\n            :ARG1-of (d / devote-01~e.4\n                  :ARG2~e.5 (g / god~e.7\n                        :poss~e.6 (COREF_s2_0 / saint~e.6))))\n      :ARG2~e.11 (p / pillar~e.13)\n      :duration~e.14 (l / life~e.17\n            :mod (a / all~e.15))\n      :manner (h / high~e.10))'
p1041
(dp1042
(lp1043
(lp1044
(dp1045
I1
tp1046
tp1047
Rp1048
ag1
(g2
g3
(S"`` I 'll open with a virgin , '' says one ."
p1049
(lp1050
(iamr_util.Actions
AMRAction
p1051
(dp1052
g8
I3
sg9
Nsg10
Nsg11
Nsg13
Nsg15
g19
sba(iamr_util.Actions
AMRAction
p1053
(dp1054
g8
I0
sg9
Nsg10
Nsg11
S'one'
p1055
sg13
S'COREF_o_0'
p1056
sg15
g16
sba(iamr_util.Actions
AMRAction
p1057
(dp1058
g8
I3
sg9
Nsg10
Nsg11
Nsg13
Nsg15
g19
sba(iamr_util.Actions
AMRAction
p1059
(dp1060
g8
I0
sg9
Nsg10
Nsg11
S'open-02'
p1061
sg13
S'o2'
p1062
sg15
g16
sba(iamr_util.Actions
AMRAction
p1063
(dp1064
g8
I1
sg9
Nsg10
Nsg11
S'ARG0'
p1065
sg13
Nsg15
g35
sba(iamr_util.Actions
AMRAction
p1066
(dp1067
g8
I3
sg9
Nsg10
Nsg11
Nsg13
Nsg15
g19
sba(iamr_util.Actions
AMRAction
p1068
(dp1069
g8
I3
sg9
Nsg10
Nsg11
Nsg13
Nsg15
g19
sba(iamr_util.Actions
AMRAction
p1070
(dp1071
g8
I0
sg9
Nsg10
Nsg11
S'virgin'
p1072
sg13
S'v'
p1073
sg15
g16
sba(iamr_util.Actions
AMRAction
p1074
(dp1075
g8
I2
sg9
Nsg10
Nsg11
S'manner'
p1076
sg13
Nsg15
g118
sba(iamr_util.Actions
AMRAction
p1077
(dp1078
g8
I3
sg9
Nsg10
Nsg11
Nsg13
Nsg15
g19
sba(iamr_util.Actions
AMRAction
p1079
(dp1080
g8
I3
sg9
Nsg10
Nsg11
Nsg13
Nsg15
g19
sba(iamr_util.Actions
AMRAction
p1081
(dp1082
g8
I0
sg9
Nsg10
Nsg11
S'say-01'
p1083
sg13
g261
sg15
g16
sba(iamr_util.Actions
AMRAction
p1084
(dp1085
g8
I1
sg9
Nsg10
Nsg11
S'ARG1'
p1086
sg13
Nsg15
g35
sba(iamr_util.Actions
AMRAction
p1087
(dp1088
g8
I0
sg9
Nsg10
Nsg11
S'one'
p1089
sg13
g14
sg15
g16
sba(iamr_util.Actions
AMRAction
p1090
(dp1091
g8
I2
sg9
Nsg10
Nsg11
S'ARG0'
p1092
sg13
Nsg15
g118
sba(iamr_util.Actions
AMRAction
p1093
(dp1094
g8
I3
sg9
Nsg10
Nsg11
Nsg13
Nsg15
g19
sbaS'(s / say-01~e.9\n      :ARG0 (o / one~e.10)\n      :ARG1 (o2 / open-02~e.3\n            :ARG0 (COREF_o_0 / one~e.1)\n            :manner~e.4 (v / virgin~e.6)))'
p1095
(dp1096
(lp1097
(lp1098
(dp1099
I1
tp1100
tp1101
Rp1102
ag1
(g2
g3
(S'As I drift toward my last sigh , I often imagine a final joke .'
p1103
(lp1104
(iamr_util.Actions
AMRAction
p1105
(dp1106
g8
I3
sg9
Nsg10
Nsg11
Nsg13
Nsg15
g19
sba(iamr_util.Actions
AMRAction
p1107
(dp1108
g8
I0
sg9
Nsg10
Nsg11
g89
sg13
S'COREF_i2_0'
p1109
sg15
g16
sba(iamr_util.Actions
AMRAction
p1110
(dp1111
g8
I0
sg9
Nsg10
Nsg11
S'drift-01'
p1112
sg13
g131
sg15
g16
sba(iamr_util.Actions
AMRAction
p1113
(dp1114
g8
I1
sg9
Nsg10
Nsg11
S'ARG1'
p1115
sg13
Nsg15
g35
sba(iamr_util.Actions
AMRAction
p1116
(dp1117
g8
I3
sg9
Nsg10
Nsg11
Nsg13
Nsg15
g19
sba(iamr_util.Actions
AMRAction
p1118
(dp1119
g8
I0
sg9
Nsg10
Nsg11
g89
sg13
S'COREF_i2_1'
p1120
sg15
g16
sba(iamr_util.Actions
AMRAction
p1121
(dp1122
g8
I0
sg9
Nsg10
Nsg11
S'last'
p1123
sg13
g224
sg15
g16
sba(iamr_util.Actions
AMRAction
p1124
(dp1125
g8
I0
sg9
Nsg10
Nsg11
S'sigh-02'
p1126
sg13
g261
sg15
g16
sba(iamr_util.Actions
AMRAction
p1127
(dp1128
g8
I1
sg9
Nsg10
Nsg11
S'mod'
p1129
sg13
Nsg15
g35
sba(iamr_util.Actions
AMRAction
p1130
(dp1131
g8
I1
sg9
Nsg10
Nsg11
S'ARG0'
p1132
sg13
Nsg15
g35
sba(iamr_util.Actions
AMRAction
p1133
(dp1134
g8
I2
sg9
Nsg10
Nsg11
S'destination'
p1135
sg13
Nsg15
g118
sba(iamr_util.Actions
AMRAction
p1136
(dp1137
g8
I3
sg9
Nsg10
Nsg11
Nsg13
Nsg15
g19
sba(iamr_util.Actions
AMRAction
p1138
(dp1139
g8
I0
sg9
Nsg10
Nsg11
g89
sg13
S'i2'
p1140
sg15
g16
sba(iamr_util.Actions
AMRAction
p1141
(dp1142
g8
I0
sg9
Nsg10
Nsg11
S'often'
p1143
sg13
g14
sg15
g16
sba(iamr_util.Actions
AMRAction
p1144
(dp1145
g8
I0
sg9
Nsg10
Nsg11
S'imagine-01'
p1146
sg13
g89
sg15
g16
sba(iamr_util.Actions
AMRAction
p1147
(dp1148
g8
I1
sg9
Nsg10
Nsg11
S'frequency'
p1149
sg13
Nsg15
g35
sba(iamr_util.Actions
AMRAction
p1150
(dp1151
g8
I1
sg9
Nsg10
Nsg11
S'ARG0'
p1152
sg13
Nsg15
g35
sba(iamr_util.Actions
AMRAction
p1153
(dp1154
g8
I1
sg9
Nsg10
Nsg11
S'time'
p1155
sg13
Nsg15
g35
sba(iamr_util.Actions
AMRAction
p1156
(dp1157
g8
I3
sg9
Nsg10
Nsg11
Nsg13
Nsg15
g19
sba(iamr_util.Actions
AMRAction
p1158
(dp1159
g8
I0
sg9
Nsg10
Nsg11
S'final'
p1160
sg13
g84
sg15
g16
sba(iamr_util.Actions
AMRAction
p1161
(dp1162
g8
I0
sg9
Nsg10
Nsg11
S'joke-01'
p1163
sg13
S'j'
p1164
sg15
g16
sba(iamr_util.Actions
AMRAction
p1165
(dp1166
g8
I1
sg9
Nsg10
Nsg11
S'mod'
p1167
sg13
Nsg15
g35
sba(iamr_util.Actions
AMRAction
p1168
(dp1169
g8
I2
sg9
Nsg10
Nsg11
S'ARG1'
p1170
sg13
Nsg15
g118
sba(iamr_util.Actions
AMRAction
p1171
(dp1172
g8
I3
sg9
Nsg10
Nsg11
Nsg13
Nsg15
g19
sbaS'(i / imagine-01~e.10\n      :ARG0 (i2 / i~e.8)\n      :ARG1 (j / joke-01~e.13\n            :mod (f / final~e.12))\n      :frequency (o / often~e.9)\n      :time~e.0 (d / drift-01~e.2\n            :ARG1 (COREF_i2_0 / i~e.1)\n            :destination (s / sigh-02~e.6\n                  :ARG0~e.4 (COREF_i2_1 / i~e.4)\n                  :mod (l / last~e.5))))'
p1173
(dp1174
(lp1175
(lp1176
(dp1177
I1
tp1178
tp1179
Rp1180
ag1
(g2
g3
(S'Balqes wanted her job back ;'
p1181
(lp1182
(iamr_util.Actions
AMRAction
p1183
(dp1184
g8
I3
sg9
Nsg10
Nsg11
Nsg13
Nsg15
g19
sba(iamr_util.Actions
AMRAction
p1185
(dp1186
g8
I0
sg9
Nsg10
Nsg11
S'want-01'
p1187
sg13
g762
sg15
g16
sba(iamr_util.Actions
AMRAction
p1188
(dp1189
g8
I0
sg9
Nsg10
Nsg11
S'person'
p1190
sg13
S'COREF_p2_0'
p1191
sg15
g16
sba(iamr_util.Actions
AMRAction
p1192
(dp1193
g8
I0
sg9
Nsg10
Nsg11
S'job'
p1194
sg13
g1164
sg15
g16
sba(iamr_util.Actions
AMRAction
p1195
(dp1196
g8
I1
sg9
Nsg10
Nsg11
S'poss'
p1197
sg13
Nsg15
g35
sba(iamr_util.Actions
AMRAction
p1198
(dp1199
g8
I0
sg9
Nsg10
Nsg11
S'back'
p1200
sg13
S'b2'
p1201
sg15
g16
sba(iamr_util.Actions
AMRAction
p1202
(dp1203
g8
I2
sg9
Nsg10
Nsg11
S'mod'
p1204
sg13
Nsg15
g118
sba(iamr_util.Actions
AMRAction
p1205
(dp1206
g8
I2
sg9
Nsg10
Nsg11
S'ARG1'
p1207
sg13
Nsg15
g118
sba(iamr_util.Actions
AMRAction
p1208
(dp1209
g8
I3
sg9
Nsg10
Nsg11
Nsg13
Nsg15
g19
sbaS'(w / want-01~e.1\n      :ARG0 (p2 / person)\n      :ARG1 (j / job~e.3\n            :poss~e.2 (COREF_p2_0 / person~e.2)\n            :mod (b2 / back~e.4)))'
p1210
(dp1211
(lp1212
(lp1213
(dp1214
I1
tp1215
tp1216
Rp1217
ag1
(g2
g3
(S'He seems to remember every soldier he ever met :'
p1218
(lp1219
(iamr_util.Actions
AMRAction
p1220
(dp1221
g8
I0
sg9
Nsg10
Nsg11
S'he'
p1222
sg13
g590
sg15
g16
sba(iamr_util.Actions
AMRAction
p1223
(dp1224
g8
I0
sg9
Nsg10
Nsg11
S'seem-01'
p1225
sg13
g261
sg15
g16
sba(iamr_util.Actions
AMRAction
p1226
(dp1227
g8
I3
sg9
Nsg10
Nsg11
Nsg13
Nsg15
g19
sba(iamr_util.Actions
AMRAction
p1228
(dp1229
g8
I0
sg9
Nsg10
Nsg11
S'remember-01'
p1230
sg13
g494
sg15
g16
sba(iamr_util.Actions
AMRAction
p1231
(dp1232
g8
I4
sg9
Nsg10
Nsg11
Nsg13
Nsg15
S'SW'
p1233
sba(iamr_util.Actions
AMRAction
p1234
(dp1235
g8
I1
sg9
Nsg10
Nsg11
S'ARG0'
p1236
sg13
Nsg15
g35
sba(iamr_util.Actions
AMRAction
p1237
(dp1238
g8
I0
sg9
Nsg10
Nsg11
S'every'
p1239
sg13
g138
sg15
g16
sba(iamr_util.Actions
AMRAction
p1240
(dp1241
g8
I0
sg9
Nsg10
Nsg11
S'soldier'
p1242
sg13
S's2'
p1243
sg15
g16
sba(iamr_util.Actions
AMRAction
p1244
(dp1245
g8
I1
sg9
Nsg10
Nsg11
S'mod'
p1246
sg13
Nsg15
g35
sba(iamr_util.Actions
AMRAction
p1247
(dp1248
g8
I0
sg9
Nsg10
Nsg11
S'he'
p1249
sg13
S'COREF_h_0'
p1250
sg15
g16
sba(iamr_util.Actions
AMRAction
p1251
(dp1252
g8
I0
sg9
Nsg10
Nsg11
S'ever'
p1253
sg13
S'e2'
p1254
sg15
g16
sba(iamr_util.Actions
AMRAction
p1255
(dp1256
g8
I0
sg9
Nsg10
Nsg11
S'meet-02'
p1257
sg13
g67
sg15
g16
sba(iamr_util.Actions
AMRAction
p1258
(dp1259
g8
I1
sg9
Nsg10
Nsg11
S'time'
p1260
sg13
Nsg15
g35
sba(iamr_util.Actions
AMRAction
p1261
(dp1262
g8
I1
sg9
Nsg10
Nsg11
S'ARG0'
p1263
sg13
Nsg15
g35
sba(iamr_util.Actions
AMRAction
p1264
(dp1265
g8
I2
sg9
Nsg10
Nsg11
S'ARG1-of'
p1266
sg13
Nsg15
g118
sba(iamr_util.Actions
AMRAction
p1267
(dp1268
g8
I2
sg9
Nsg10
Nsg11
S'ARG1'
p1269
sg13
Nsg15
g118
sba(iamr_util.Actions
AMRAction
p1270
(dp1271
g8
I2
sg9
Nsg10
Nsg11
S'ARG1'
p1272
sg13
Nsg15
g118
sba(iamr_util.Actions
AMRAction
p1273
(dp1274
g8
I3
sg9
Nsg10
Nsg11
Nsg13
Nsg15
g19
sbaS'(s / seem-01~e.1\n      :ARG1 (r / remember-01~e.3\n            :ARG0 (h / he~e.0)\n            :ARG1 (s2 / soldier~e.5\n                  :mod (e / every~e.4)\n                  :ARG1-of (m / meet-02~e.8\n                        :ARG0 (COREF_h_0 / he~e.6)\n                        :time (e2 / ever~e.7)))))'
p1275
(dp1276
(lp1277
(lp1278
(dp1279
I1
tp1280
tp1281
Rp1282
ag1
(g2
g3
(S'Otherwise you will be killed by jihadis because you are a traitor .'
p1283
(lp1284
(iamr_util.Actions
AMRAction
p1285
(dp1286
g8
I0
sg9
Nsg10
Nsg11
S'otherwise'
p1287
sg13
g14
sg15
g16
sba(iamr_util.Actions
AMRAction
p1288
(dp1289
g8
I0
sg9
Nsg10
Nsg11
S'you'
p1290
sg13
g248
sg15
g16
sba(iamr_util.Actions
AMRAction
p1291
(dp1292
g8
I3
sg9
Nsg10
Nsg11
Nsg13
Nsg15
g19
sba(iamr_util.Actions
AMRAction
p1293
(dp1294
g8
I3
sg9
Nsg10
Nsg11
Nsg13
Nsg15
g19
sba(iamr_util.Actions
AMRAction
p1295
(dp1296
g8
I0
sg9
Nsg10
Nsg11
S'kill-01'
p1297
sg13
g254
sg15
g16
sba(iamr_util.Actions
AMRAction
p1298
(dp1299
g8
I1
sg9
Nsg10
Nsg11
S'ARG1'
p1300
sg13
Nsg15
g35
sba(iamr_util.Actions
AMRAction
p1301
(dp1302
g8
I1
sg9
Nsg10
Nsg11
S'mod'
p1303
sg13
Nsg15
g35
sba(iamr_util.Actions
AMRAction
p1304
(dp1305
g8
I3
sg9
Nsg10
Nsg11
Nsg13
Nsg15
g19
sba(iamr_util.Actions
AMRAction
p1306
(dp1307
g8
I0
sg9
Nsg10
Nsg11
S'jihadi'
p1308
sg13
g1164
sg15
g16
sba(iamr_util.Actions
AMRAction
p1309
(dp1310
g8
I2
sg9
Nsg10
Nsg11
S'ARG0'
p1311
sg13
Nsg15
g118
sba(iamr_util.Actions
AMRAction
p1312
(dp1313
g8
I0
sg9
Nsg10
Nsg11
S'cause-01'
p1314
sg13
g48
sg15
g16
sba(iamr_util.Actions
AMRAction
p1315
(dp1316
g8
I0
sg9
Nsg10
Nsg11
S'you'
p1317
sg13
S'COREF_y_0'
p1318
sg15
g16
sba(iamr_util.Actions
AMRAction
p1319
(dp1320
g8
I3
sg9
Nsg10
Nsg11
Nsg13
Nsg15
g19
sba(iamr_util.Actions
AMRAction
p1321
(dp1322
g8
I3
sg9
Nsg10
Nsg11
Nsg13
Nsg15
g19
sba(iamr_util.Actions
AMRAction
p1323
(dp1324
g8
I0
sg9
Nsg10
Nsg11
S'betray-01'
p1325
sg13
g451
sg15
g16
sba(iamr_util.Actions
AMRAction
p1326
(dp1327
g8
I1
sg9
Nsg10
Nsg11
S'ARG0'
p1328
sg13
Nsg15
g35
sba(iamr_util.Actions
AMRAction
p1329
(dp1330
g8
I2
sg9
Nsg10
Nsg11
S'ARG0'
p1331
sg13
Nsg15
g118
sba(iamr_util.Actions
AMRAction
p1332
(dp1333
g8
I2
sg9
Nsg10
Nsg11
S'ARG1-of'
p1334
sg13
Nsg15
g118
sba(iamr_util.Actions
AMRAction
p1335
(dp1336
g8
I3
sg9
Nsg10
Nsg11
Nsg13
Nsg15
g19
sbaS'(k / kill-01~e.4\n      :ARG0~e.5 (j / jihadi~e.6)\n      :ARG1 (y / you~e.1)\n      :ARG1-of (c / cause-01~e.7\n            :ARG0 (b / betray-01~e.11\n                  :ARG0 (COREF_y_0 / you~e.8)))\n      :mod (o / otherwise~e.0))'
p1337
(dp1338
(lp1339
(lp1340
(dp1341
I1
tp1342
tp1343
Rp1344
ag1
(g2
g3
(S'He had a compound fracture in his leg and severe burns all over his body ,'
p1345
(lp1346
(iamr_util.Actions
AMRAction
p1347
(dp1348
g8
I0
sg9
Nsg10
Nsg11
S'he'
p1349
sg13
S'h2'
p1350
sg15
g16
sba(iamr_util.Actions
AMRAction
p1351
(dp1352
g8
I0
sg9
Nsg10
Nsg11
S'have-03'
p1353
sg13
g590
sg15
g16
sba(iamr_util.Actions
AMRAction
p1354
(dp1355
g8
I1
sg9
Nsg10
Nsg11
S'ARG0'
p1356
sg13
Nsg15
g35
sba(iamr_util.Actions
AMRAction
p1357
(dp1358
g8
I3
sg9
Nsg10
Nsg11
Nsg13
Nsg15
g19
sba(iamr_util.Actions
AMRAction
p1359
(dp1360
g8
I0
sg9
Nsg10
Nsg11
S'compound-01'
p1361
sg13
g48
sg15
g16
sba(iamr_util.Actions
AMRAction
p1362
(dp1363
g8
I0
sg9
Nsg10
Nsg11
S'fracture-01'
p1364
sg13
g84
sg15
g16
sba(iamr_util.Actions
AMRAction
p1365
(dp1366
g8
I1
sg9
Nsg10
Nsg11
S'ARG1-of'
p1367
sg13
Nsg15
g35
sba(iamr_util.Actions
AMRAction
p1368
(dp1369
g8
I3
sg9
Nsg10
Nsg11
Nsg13
Nsg15
g19
sba(iamr_util.Actions
AMRAction
p1370
(dp1371
g8
I0
sg9
Nsg10
Nsg11
S'he'
p1372
sg13
S'COREF_h2_0'
p1373
sg15
g16
sba(iamr_util.Actions
AMRAction
p1374
(dp1375
g8
I0
sg9
Nsg10
Nsg11
S'leg'
p1376
sg13
g224
sg15
g16
sba(iamr_util.Actions
AMRAction
p1377
(dp1378
g8
I1
sg9
Nsg10
Nsg11
S'part-of'
p1379
sg13
Nsg15
g35
sba(iamr_util.Actions
AMRAction
p1380
(dp1381
g8
I2
sg9
Nsg10
Nsg11
S'ARG1'
p1382
sg13
Nsg15
g118
sba(iamr_util.Actions
AMRAction
p1383
(dp1384
g8
I0
sg9
Nsg10
Nsg11
S'and'
p1385
sg13
g61
sg15
g16
sba(iamr_util.Actions
AMRAction
p1386
(dp1387
g8
I1
sg9
Nsg10
Nsg11
S'op1'
p1388
sg13
Nsg15
g35
sba(iamr_util.Actions
AMRAction
p1389
(dp1390
g8
I0
sg9
Nsg10
Nsg11
S'severe'
p1391
sg13
g261
sg15
g16
sba(iamr_util.Actions
AMRAction
p1392
(dp1393
g8
I0
sg9
Nsg10
Nsg11
S'burn-01'
p1394
sg13
g451
sg15
g16
sba(iamr_util.Actions
AMRAction
p1395
(dp1396
g8
I1
sg9
Nsg10
Nsg11
S'mod'
p1397
sg13
Nsg15
g35
sba(iamr_util.Actions
AMRAction
p1398
(dp1399
g8
I0
sg9
Nsg10
Nsg11
S'all-over'
p1400
sg13
S'a3'
p1401
sg15
g16
sba(iamr_util.Actions
AMRAction
p1402
(dp1403
g8
I2
sg9
Nsg10
Nsg11
S'extent'
p1404
sg13
Nsg15
g118
sba(iamr_util.Actions
AMRAction
p1405
(dp1406
g8
I3
sg9
Nsg10
Nsg11
Nsg13
Nsg15
g19
sba(iamr_util.Actions
AMRAction
p1407
(dp1408
g8
I0
sg9
Nsg10
Nsg11
S'he'
p1409
sg13
S'COREF_h2_1'
p1410
sg15
g16
sba(iamr_util.Actions
AMRAction
p1411
(dp1412
g8
I0
sg9
Nsg10
Nsg11
S'body'
p1413
sg13
S'b2'
p1414
sg15
g16
sba(iamr_util.Actions
AMRAction
p1415
(dp1416
g8
I1
sg9
Nsg10
Nsg11
S'poss'
p1417
sg13
Nsg15
g35
sba(iamr_util.Actions
AMRAction
p1418
(dp1419
g8
I2
sg9
Nsg10
Nsg11
S'location'
p1420
sg13
Nsg15
g118
sba(iamr_util.Actions
AMRAction
p1421
(dp1422
g8
I2
sg9
Nsg10
Nsg11
S'op2'
p1423
sg13
Nsg15
g118
sba(iamr_util.Actions
AMRAction
p1424
(dp1425
g8
I2
sg9
Nsg10
Nsg11
S'ARG1'
p1426
sg13
Nsg15
g118
sba(iamr_util.Actions
AMRAction
p1427
(dp1428
g8
I3
sg9
Nsg10
Nsg11
Nsg13
Nsg15
g19
sbaS'(h / have-03~e.1\n      :ARG0 (h2 / he~e.0)\n      :ARG1 (a / and~e.8\n            :op1 (f / fracture-01~e.4\n                  :ARG1~e.5 (l / leg~e.7\n                        :part-of~e.6 (COREF_h2_0 / he~e.6))\n                  :ARG1-of (c / compound-01~e.3))\n            :op2 (b / burn-01~e.10\n                  :mod (s / severe~e.9)\n                  :location (b2 / body~e.14\n                        :poss~e.13 (COREF_h2_1 / he~e.13))\n                  :extent (a3 / all-over~e.11,12))))'
p1429
(dp1430
(lp1431
(lp1432
(dp1433
I1
tp1434
tp1435
Rp1436
ag1
(g2
g3
(S'His captors would be looking for him .'
p1437
(lp1438
(iamr_util.Actions
AMRAction
p1439
(dp1440
g8
I0
sg9
Nsg10
Nsg11
S'he'
p1441
sg13
S'COREF_h2_0'
p1442
sg15
g16
sba(iamr_util.Actions
AMRAction
p1443
(dp1444
g8
I3
sg9
Nsg10
Nsg11
Nsg13
Nsg15
g19
sba(iamr_util.Actions
AMRAction
p1445
(dp1446
g8
I3
sg9
Nsg10
Nsg11
Nsg13
Nsg15
g19
sba(iamr_util.Actions
AMRAction
p1447
(dp1448
g8
I3
sg9
Nsg10
Nsg11
Nsg13
Nsg15
g19
sba(iamr_util.Actions
AMRAction
p1449
(dp1450
g8
I0
sg9
Nsg10
Nsg11
S'look-01'
p1451
sg13
g224
sg15
g16
sba(iamr_util.Actions
AMRAction
p1452
(dp1453
g8
I1
sg9
Nsg10
Nsg11
S'ARG1'
p1454
sg13
Nsg15
g35
sba(iamr_util.Actions
AMRAction
p1455
(dp1456
g8
I3
sg9
Nsg10
Nsg11
Nsg13
Nsg15
g19
sba(iamr_util.Actions
AMRAction
p1457
(dp1458
g8
I3
sg9
Nsg10
Nsg11
Nsg13
Nsg15
g19
sba(iamr_util.Actions
AMRAction
p1459
(dp1460
g8
I3
sg9
Nsg10
Nsg11
Nsg13
Nsg15
g19
sbaS'(l / look-01~e.4\n      :ARG0 (p / person\n            :ARG0-of (c / capture-01\n                  :ARG1 (h2 / he)))\n      :ARG1 (COREF_h2_0 / he~e.0,6))'
p1461
(dp1462
(lp1463
(lp1464
(dp1465
I1
tp1466
tp1467
Rp1468
ag1
(g2
g3
(S"The family had n't told Balqes of the kidnapping ."
p1469
(lp1470
(iamr_util.Actions
AMRAction
p1471
(dp1472
g8
I3
sg9
Nsg10
Nsg11
Nsg13
Nsg15
g19
sba(iamr_util.Actions
AMRAction
p1473
(dp1474
g8
I0
sg9
Nsg10
Nsg11
S'family'
p1475
sg13
g84
sg15
g16
sba(iamr_util.Actions
AMRAction
p1476
(dp1477
g8
I3
sg9
Nsg10
Nsg11
Nsg13
Nsg15
g19
sba(iamr_util.Actions
AMRAction
p1478
(dp1479
g8
I0
sg9
Nsg10
Nsg11
g1
(g306
g307
g308
tp1480
Rp1481
sg13
g1481
sg15
g16
sba(iamr_util.Actions
AMRAction
p1482
(dp1483
g8
I0
sg9
Nsg10
Nsg11
S'tell-01'
p1484
sg13
g23
sg15
g16
sba(iamr_util.Actions
AMRAction
p1485
(dp1486
g8
I1
sg9
Nsg10
Nsg11
S'polarity'
p1487
sg13
Nsg15
g35
sba(iamr_util.Actions
AMRAction
p1488
(dp1489
g8
I1
sg9
Nsg10
Nsg11
S'ARG0'
p1490
sg13
Nsg15
g35
sba(iamr_util.Actions
AMRAction
p1491
(dp1492
g8
I3
sg9
Nsg10
Nsg11
Nsg13
Nsg15
g19
sba(iamr_util.Actions
AMRAction
p1493
(dp1494
g8
I3
sg9
Nsg10
Nsg11
Nsg13
Nsg15
g19
sba(iamr_util.Actions
AMRAction
p1495
(dp1496
g8
I3
sg9
Nsg10
Nsg11
Nsg13
Nsg15
g19
sba(iamr_util.Actions
AMRAction
p1497
(dp1498
g8
I0
sg9
Nsg10
Nsg11
S'kidnap-01'
p1499
sg13
g254
sg15
g16
sba(iamr_util.Actions
AMRAction
p1500
(dp1501
g8
I2
sg9
Nsg10
Nsg11
S'ARG1'
p1502
sg13
Nsg15
g118
sba(iamr_util.Actions
AMRAction
p1503
(dp1504
g8
I3
sg9
Nsg10
Nsg11
Nsg13
Nsg15
g19
sbaS'(t / tell-01~e.4 :polarity~e.3 -~e.3\n      :ARG0 (f / family~e.1)\n      :ARG1~e.6 (k / kidnap-01~e.8)\n      :ARG2 (p2 / person))'
p1505
(dp1506
(lp1507
(lp1508
(dp1509
I1
tp1510
tp1511
Rp1512
a.